(lp0
(dp1
S'request_slots'
p2
(dp3
S'reservation'
p4
S'UNK'
p5
sS'restaurantname'
p6
g5
sS'address'
p7
g5
ssS'diaact'
p8
S'request'
p9
sS'inform_slots'
p10
(dp11
S'date'
p12
S'Thursday'
p13
sS'city'
p14
S'LA'
p15
sS'numberofpeople'
p16
S'7'
p17
sS'starttime'
p18
S'6pm'
p19
sS'cuisine'
p20
S'Mexican'
p21
ssa(dp22
g2
(dp23
S'date'
p24
g5
sS'restaurantname'
p25
g5
sS'starttime'
p26
g5
sg7
g5
ssg8
g9
sg10
(dp27
S'cuisine'
p28
S'authentic Russian'
p29
sS'numberofpeople'
p30
S'2'
p31
ssa(dp32
g2
(dp33
g24
g5
sS'reservation'
p34
g5
sg26
g5
sg7
g5
ssg8
g9
sg10
(dp35
S'city'
p36
S'Del Mar'
p37
sS'restaurantname'
p38
S'Poseidon'
p39
sg30
S'2'
p40
sS'state'
p41
S'CA'
p42
ssa(dp43
g2
(dp44
S'reservation'
p45
g5
sg6
g5
sg26
g5
sg7
g5
ssg8
g9
sg10
(dp46
S'date'
p47
S'tomorrow night'
p48
sS'city'
p49
S'Chicago'
p50
sg30
S'2'
p51
sS'cuisine'
p52
S'Italian'
p53
ssa(dp54
g2
(dp55
g24
g5
sS'reservation'
p56
g5
sg6
g5
sg26
g5
sg7
g5
ssg8
g9
sg10
(dp57
S'city'
p58
S'Los Angeles'
p59
sS'numberofpeople'
p60
S'5'
p61
sS'pricing'
p62
S'fairly cheap'
p63
sS'cuisine'
p64
S'Mexican'
p65
ssa(dp66
g2
(dp67
g24
g5
sS'restaurantname'
p68
g5
sg26
g5
sg7
g5
ssg8
g9
sg10
(dp69
S'city'
p70
S'Austin'
p71
sg30
S'2'
p72
sS'restauranttype'
p73
S'live music'
p74
ssa(dp75
g2
(dp76
S'reservation'
p77
g5
sg6
g5
sg7
g5
ssg8
g9
sg10
(dp78
S'date'
p79
S'tomorrow'
p80
sS'city'
p81
S'Boston'
p82
sg30
S'10'
p83
sS'starttime'
p84
S'around 7pm'
p85
sS'cuisine'
p86
S'Asian'
p87
ssa(dp88
g2
(dp89
S'reservation'
p90
g5
sg6
g5
sg26
g5
sg7
g5
ssg8
g9
sg10
(dp91
S'date'
p92
S'tongiht'
p93
sS'city'
p94
S'Seattle'
p95
sS'numberofpeople'
p96
S'9'
p97
ssa(dp98
g2
(dp99
g24
g5
sS'reservation'
p100
g5
sg26
g5
sg7
g5
ssg8
g9
sg10
(dp101
S'food'
p102
S'sushi'
p103
sS'city'
p104
S'Orlando'
p105
sS'restaurantname'
p106
S'Midtown Cafe'
p107
sS'numberofpeople'
p108
S'5'
p109
sS'restauranttype'
p110
S'buffet'
p111
ssa(dp112
g2
(dp113
g24
g5
sS'reservation'
p114
g5
sg6
g5
sg26
g5
sg7
g5
ssg8
g9
sg10
(dp115
S'city'
p116
S'Reno'
p117
sS'state'
p118
S'NV'
p119
sS'restauranttype'
p120
S'steak house'
p121
sS'numberofpeople'
p122
S'4'
p123
ssa(dp124
g2
(dp125
S'reservation'
p126
g5
sg7
g5
ssg8
g9
sg10
(dp127
S'date'
p128
S'tomorrow'
p129
sS'restaurantname'
p130
S'II Corvo'
p131
sS'numberofpeople'
p132
S'7'
p133
sS'starttime'
p134
S'8pm'
p135
ssa(dp136
g2
(dp137
S'restaurantname'
p138
g5
sg7
g5
ssg8
g9
sg10
(dp139
S'date'
p140
S'tomorrow'
p141
sS'city'
p142
S'Dallas'
p143
sS'state'
p144
S'tx'
p145
sg30
S'9'
p146
sS'starttime'
p147
S'5pm'
p148
ssa(dp149
g2
(dp150
g24
g5
sS'reservation'
p151
g5
sg26
g5
sg7
g5
ssg8
g9
sg10
(dp152
S'city'
p153
S'new orleans'
p154
sS'restaurantname'
p155
S'feelings caf\xe2\x94\x9c\xe2\x8c\x90'
p156
sg30
S'10'
p157
ssa(dp158
g2
(dp159
S'reservation'
p160
g5
sg6
g5
sg26
g5
sg7
g5
ssg8
g9
sg10
(dp161
S'date'
p162
S'Thursday night'
p163
sg30
S'1'
p164
ssa(dp165
g2
(dp166
g24
g5
sS'reservation'
p167
g5
sg6
g5
sg26
g5
sg7
g5
ssg8
g9
sg10
(dp168
S'food'
p169
S'some spicy food'
p170
sS'city'
p171
S'Miami'
p172
sS'numberofpeople'
p173
S'3'
p174
ssa(dp175
g2
(dp176
g24
g5
sS'reservation'
p177
g5
sg6
g5
sg26
g5
sg7
g5
ssg8
g9
sg10
(dp178
S'cuisine'
p179
S'Italian'
p180
sS'numberofpeople'
p181
S'6'
p182
sS'city'
p183
S'salt lake'
p184
ssa(dp185
g2
(dp186
S'reservation'
p187
g5
sg26
g5
sg7
g5
ssg8
g9
sg10
(dp188
S'date'
p189
S'tomorrow'
p190
sS'city'
p191
S'Atlanta'
p192
sS'restaurantname'
p193
S'Bonefish Grill'
p194
sS'numberofpeople'
p195
S'7'
p196
ssa(dp197
g2
(dp198
g24
g5
sS'reservation'
p199
g5
sg6
g5
sg26
g5
ssg8
g9
sg10
(dp200
g30
S'9'
p201
sS'restauranttype'
p202
S'mexican'
p203
sS'pricing'
p204
S'cheap'
p205
sS'address'
p206
S'Petaluma'
p207
ssa(dp208
g2
(dp209
S'reservation'
p210
g5
sg6
g5
sg7
g5
ssg8
g9
sg10
(dp211
S'date'
p212
S'3/21/16'
p213
sS'cuisine'
p214
S'Italian'
p215
sS'numberofpeople'
p216
S'5'
p217
sS'starttime'
p218
S'7pm'
p219
ssa(dp220
g2
(dp221
S'reservation'
p222
g5
sg6
g5
sg7
g5
ssg8
g9
sg10
(dp223
S'date'
p224
S'Tuesday'
p225
sS'cuisine'
p226
S'Mexican'
p227
sS'numberofpeople'
p228
S'5'
p229
sS'starttime'
p230
S'6pm'
p231
sS'city'
p232
S'LA'
p233
ssa(dp234
g2
(dp235
g24
g5
sS'reservation'
p236
g5
sg26
g5
sg7
g5
ssg8
g9
sg10
(dp237
S'city'
p238
S'Chicago'
p239
sS'restaurantname'
p240
S'Girl & the Goat'
p241
sS'numberofpeople'
p242
S'8'
p243
ssa(dp244
g2
(dp245
S'reservation'
p246
g5
sg6
g5
sg7
g5
ssg8
g9
sg10
(dp247
S'city'
p248
S'Stockton'
p249
sS'numberofpeople'
p250
S'10'
p251
sS'cuisine'
p252
S'Greek'
p253
sS'state'
p254
S'ca'
p255
sS'starttime'
p256
S'7pm'
p257
sS'date'
p258
S'today'
p259
ssa(dp260
g2
(dp261
g24
g5
sS'restaurantname'
p262
g5
sg26
g5
sg7
g5
ssg8
g9
sg10
(dp263
S'mealtype'
p264
S'anniversary dinner'
p265
sg30
S'9'
p266
sS'city'
p267
S'NYC'
p268
ssa(dp269
g2
(dp270
S'restaurantname'
p271
g5
sg7
g5
ssg8
g9
sg10
(dp272
S'cuisine'
p273
S'burrito'
p274
sS'numberofpeople'
p275
S'5'
p276
sS'city'
p277
S'San Jose'
p278
sS'state'
p279
S'California'
p280
sS'starttime'
p281
S'6'
p282
sS'date'
p283
S'next tuesday'
p284
ssa(dp285
g2
(dp286
g24
g5
sS'restaurantname'
p287
g5
sg26
g5
sg7
g5
ssg8
g9
sg10
(dp288
S'cuisine'
p289
S'brazilian'
p290
sg30
S'3'
p291
sS'restauranttype'
p292
S'steakhouse'
p293
sS'city'
p294
S'Las Vegas'
p295
ssa(dp296
g2
(dp297
S'reservation'
p298
g5
sg7
g5
ssg8
g9
sg10
(dp299
S'date'
p300
S'tomorrow'
p301
sS'city'
p302
S'Seattle'
p303
sS'restaurantname'
p304
S'Agrodolce'
p305
sS'numberofpeople'
p306
S'4'
p307
sS'starttime'
p308
S'7:00PM'
p309
ssa(dp310
g2
(dp311
S'reservation'
p312
g5
sg7
g5
ssg8
g9
sg10
(dp313
S'date'
p314
S'March 16th'
p315
sS'city'
p316
S'seattle'
p317
sS'restaurantname'
p318
S'The Pink Door'
p319
sS'numberofpeople'
p320
S'7'
p321
sS'starttime'
p322
S'9pm'
p323
ssa(dp324
g2
(dp325
g24
g5
sS'reservation'
p326
g5
sg26
g5
sg7
g5
ssg8
g9
sg10
(dp327
S'city'
p328
S'Seattle'
p329
sS'restaurantname'
p330
S'The Pink Door'
p331
sS'numberofpeople'
p332
S'4'
p333
ssa(dp334
g2
(dp335
g24
g5
sS'reservation'
p336
g5
sg6
g5
sg26
g5
sg7
g5
ssg8
g9
sg10
(dp337
S'city'
p338
S'Detroit'
p339
sS'numberofpeople'
p340
S'1'
p341
sS'cuisine'
p342
S'Mediterranean'
p343
ssa(dp344
g2
(dp345
S'reservation'
p346
g5
sg6
g5
sg26
g5
sg7
g5
ssg8
g9
sg10
(dp347
S'date'
p348
S'tomorrow'
p349
sS'city'
p350
S'phoenix'
p351
sS'numberofpeople'
p352
S'2'
p353
ssa(dp354
g2
(dp355
S'reservation'
p356
g5
sg6
g5
sg7
g5
ssg8
g9
sg10
(dp357
S'date'
p358
S'tomorrow'
p359
sS'city'
p360
S'Orlando'
p361
sS'numberofpeople'
p362
S'5'
p363
sS'restauranttype'
p364
S'seafood restaurant'
p365
sS'starttime'
p366
S'6pm'
p367
ssa(dp368
g2
(dp369
S'reservation'
p370
g5
sg7
g5
ssg8
g9
sg10
(dp371
S'date'
p372
S'tomorrow'
p373
sS'city'
p374
S'Orlando'
p375
sS'restaurantname'
p376
S'Hard Rock Cafe'
p377
sS'numberofpeople'
p378
S'1'
p379
sS'starttime'
p380
S'15:00'
p381
ssa(dp382
g2
(dp383
g24
g5
sS'restaurantname'
p384
g5
sg26
g5
sg7
g5
ssg8
g9
sg10
(dp385
S'distanceconstraints'
p386
S'near'
p387
sS'cuisine'
p388
S'Chinese'
p389
sg30
S'7'
p390
ssa(dp391
g2
(dp392
S'reservation'
p393
g5
sg26
g5
sg7
g5
ssg8
g9
sg10
(dp394
S'city'
p395
S'Orange County'
p396
sS'restaurantname'
p397
S'Bru Grill and Market'
p398
sS'numberofpeople'
p399
S'3'
p400
sS'state'
p401
S'CA'
p402
sS'date'
p403
S'Friday'
p404
sS'mealtype'
p405
S'dinner'
p406
ssa(dp407
g2
(dp408
g24
g5
sS'restaurantname'
p409
g5
sg26
g5
sg7
g5
ssg8
g9
sg10
(dp410
S'food'
p411
S'woodfired oven pizza'
p412
sS'city'
p413
S'Phoenix'
p414
sg30
S'9'
p415
ssa(dp416
g2
(dp417
g24
g5
sS'reservation'
p418
g5
sg6
g5
sg26
g5
sg7
g5
ssg8
g9
sg10
(dp419
S'occasion'
p420
S'large party'
p421
sS'numberofpeople'
p422
S'4'
p423
sS'restauranttype'
p424
S'steakhouse'
p425
sS'city'
p426
S'Dallas'
p427
ssa(dp428
g2
(dp429
g24
g5
sS'restaurantname'
p430
g5
sg26
g5
sg7
g5
ssg8
g9
sg10
(dp431
S'cuisine'
p432
S'India'
p433
sS'state'
p434
S'Arizona'
p435
sg30
S'1'
p436
sS'city'
p437
S'Gilbert'
p438
ssa(dp439
g2
(dp440
g24
g5
sS'reservation'
p441
g5
sg6
g5
sg26
g5
sg7
g5
ssg8
g9
sg10
(dp442
g30
S'7'
p443
ssa(dp444
g2
(dp445
g24
g5
sS'reservation'
p446
g5
sg6
g5
sg7
g5
ssg8
g9
sg10
(dp447
S'city'
p448
S'Decatur'
p449
sS'atmosphere'
p450
S'suitable for children'
p451
sS'numberofpeople'
p452
S'5'
p453
sS'state'
p454
S'IL'
p455
sS'starttime'
p456
S'5pm'
p457
ssa(dp458
g2
(dp459
S'restaurantname'
p460
g5
sg7
g5
ssg8
g9
sg10
(dp461
S'date'
p462
S'tonight'
p463
sS'city'
p464
S'Los Angeles'
p465
sS'numberofpeople'
p466
S'7'
p467
sS'starttime'
p468
S'any time after 6pm'
p469
sS'cuisine'
p470
S'Italian'
p471
ssa(dp472
g2
(dp473
S'reservation'
p474
g5
sg7
g5
ssg8
g9
sg10
(dp475
S'date'
p476
S'tonight'
p477
sS'city'
p478
S'Los Angeles'
p479
sS'restaurantname'
p480
S'Cardamom Indian Cuisine'
p481
sS'numberofpeople'
p482
S'3'
p483
sS'starttime'
p484
S'8pm'
p485
ssa(dp486
g2
(dp487
S'reservation'
p488
g5
sg6
g5
ssg8
g9
sg10
(dp489
S'numberofpeople'
p490
S'9'
p491
sS'other'
p492
S'with ocean view'
p493
sS'starttime'
p494
S'6pm'
p495
sS'address'
p496
S'wrightsville beach'
p497
sS'date'
p498
S'saturday'
p499
sS'restauranttype'
p500
S'a elegant restaurant'
p501
ssa(dp502
g2
(dp503
g24
g5
sS'restaurantname'
p504
g5
sg26
g5
sg7
g5
ssg8
g9
sg10
(dp505
S'city'
p506
S'Seattle'
p507
sS'state'
p508
S'WA'
p509
sS'numberofpeople'
p510
S'1'
p511
sS'restauranttype'
p512
S'formal'
p513
ssa(dp514
g2
(dp515
S'reservation'
p516
g5
sg7
g5
ssg8
g9
sg10
(dp517
S'city'
p518
S'seattle'
p519
sS'restaurantname'
p520
S'Bateau'
p521
sS'personfullname'
p522
S'Matt Preston'
p523
sS'numberofpeople'
p524
S'10'
p525
sS'starttime'
p526
S'8:30pm'
p527
sS'date'
p528
S'tomorrow'
p529
ssa(dp530
g2
(dp531
S'reservation'
p532
g5
sg6
g5
sg7
g5
ssg8
g9
sg10
(dp533
S'date'
p534
S'tomorrow'
p535
sS'city'
p536
S'Brooklyn'
p537
sS'numberofpeople'
p538
S'8'
p539
sS'restauranttype'
p540
S'seafood place'
p541
sS'starttime'
p542
S'7:00 PM'
p543
ssa(dp544
g2
(dp545
g24
g5
sS'restaurantname'
p546
g5
sg26
g5
sg7
g5
ssg8
g9
sg10
(dp547
S'food'
p548
S'barbecue'
p549
sS'city'
p550
S'clinton'
p551
sS'state'
p552
S'nc'
p553
sg30
S'3'
p554
ssa(dp555
g2
(dp556
g24
g5
sS'restaurantname'
p557
g5
sg26
g5
sg7
g5
ssg8
g9
sg10
(dp558
S'food'
p559
S'vegan'
p560
sg30
S'1'
p561
ssa(dp562
g2
(dp563
S'reservation'
p564
g5
sg6
g5
sg7
g5
ssg8
g9
sg10
(dp565
S'food'
p566
S'pizza'
p567
sS'city'
p568
S'seattle'
p569
sS'numberofpeople'
p570
S'2'
p571
sS'date'
p572
S'saturday'
p573
sS'starttime'
p574
S'5 pm'
p575
ssa(dp576
g2
(dp577
S'reservation'
p578
g5
sg6
g5
sg7
g5
ssg8
g9
sg10
(dp579
S'city'
p580
S'NYC'
p581
sS'numberofpeople'
p582
S'5'
p583
sS'starttime'
p584
S'6pm'
p585
sS'date'
p586
S'Tuesday'
p587
sS'occasion'
p588
S'party'
p589
sS'restauranttype'
p590
S'healthy'
p591
ssa(dp592
g2
(dp593
S'restaurantname'
p594
g5
sg7
g5
ssg8
g9
sg10
(dp595
S'date'
p596
S'tomorrow'
p597
sS'city'
p598
S'seattle'
p599
sS'numberofpeople'
p600
S'4'
p601
sS'starttime'
p602
S'3pm'
p603
sS'cuisine'
p604
S'Italian'
p605
ssa(dp606
g2
(dp607
g24
g5
sS'reservation'
p608
g5
sg6
g5
sg26
g5
sg7
g5
ssg8
g9
sg10
(dp609
S'city'
p610
S'Boston'
p611
sS'numberofpeople'
p612
S'5'
p613
ssa(dp614
g2
(dp615
S'reservation'
p616
g5
sg7
g5
ssg8
g9
sg10
(dp617
S'date'
p618
S'Tuesday'
p619
sS'city'
p620
S'LA'
p621
sS'restaurantname'
p622
S'Middle Eastern restaurant'
p623
sS'numberofpeople'
p624
S'9'
p625
sS'starttime'
p626
S'8pm'
p627
ssa(dp628
g2
(dp629
g24
g5
sS'restaurantname'
p630
g5
sg26
g5
sg7
g5
ssg8
g9
sg10
(dp631
S'city'
p632
S'Houston'
p633
sg30
S'2'
p634
ssa(dp635
g2
(dp636
g24
g5
sS'restaurantname'
p637
g5
sg26
g5
sg7
g5
ssg8
g9
sg10
(dp638
g30
S'10'
p639
sS'other'
p640
S'with a fire place'
p641
ssa(dp642
g2
(dp643
g24
g5
sS'reservation'
p644
g5
sg6
g5
sg26
g5
sg7
g5
ssg8
g9
sg10
(dp645
S'food'
p646
S'steak'
p647
sS'city'
p648
S'Denver'
p649
sS'state'
p650
S'Colorado'
p651
sg30
S'2'
p652
ssa(dp653
g2
(dp654
g24
g5
sS'restaurantname'
p655
g5
sg26
g5
sg7
g5
ssg8
g9
sg10
(dp656
S'city'
p657
S'Philadelphia'
p658
sg30
S'4'
p659
sS'other'
p660
S'a good deli that makes fresh roast beef'
p661
sS'greeting'
p662
S'Good Evening'
p663
ssa(dp664
g2
(dp665
S'restaurantname'
p666
g5
sg7
g5
ssg8
g9
sg10
(dp667
S'date'
p668
S'tomorrow'
p669
sS'cuisine'
p670
S'Italian'
p671
sS'numberofpeople'
p672
S'10'
p673
sS'starttime'
p674
S'3pm'
p675
sS'city'
p676
S'Seattle'
p677
ssa(dp678
g2
(dp679
S'restaurantname'
p680
g5
sg26
g5
sg7
g5
ssg8
g9
sg10
(dp681
S'date'
p682
S'next weekend'
p683
sS'rating'
p684
S'the best'
p685
sS'numberofpeople'
p686
S'4'
p687
sS'restauranttype'
p688
S'Indian'
p689
sS'city'
p690
S'Seattle'
p691
ssa(dp692
g2
(dp693
g24
g5
sS'restaurantname'
p694
g5
sg26
g5
sg7
g5
ssg8
g9
sg10
(dp695
S'distanceconstraints'
p696
S'near Bridgewater College'
p697
sS'cuisine'
p698
S'Chinese'
p699
sg30
S'8'
p700
ssa(dp701
g2
(dp702
g24
g5
sS'restaurantname'
p703
g5
sg26
g5
sg7
g5
ssg8
g9
sg10
(dp704
S'food'
p705
S'steak'
p706
sS'mealtype'
p707
S'dinner'
p708
sg30
S'6'
p709
sS'occasion'
p710
S'birthday'
p711
sS'city'
p712
S'Manhattan'
p713
ssa(dp714
g2
(dp715
S'reservation'
p716
g5
sg7
g5
ssg8
g9
sg10
(dp717
S'city'
p718
S'Birmingham'
p719
sS'restaurantname'
p720
S'Flemmings'
p721
sS'numberofpeople'
p722
S'5'
p723
sS'state'
p724
S'AL'
p725
sS'starttime'
p726
S'8PM'
p727
sS'date'
p728
S'Saturday'
p729
ssa(dp730
g2
(dp731
g24
g5
sS'reservation'
p732
g5
sg26
g5
sg7
g5
ssg8
g9
sg10
(dp733
S'cuisine'
p734
S'seafood'
p735
sS'restaurantname'
p736
S'chesapeake bay'
p737
sg30
S'6'
p738
sS'pricing'
p739
S'200'
p740
ssa(dp741
g2
(dp742
g24
g5
sS'restaurantname'
p743
g5
sg26
g5
sg7
g5
ssg8
g9
sg10
(dp744
S'city'
p745
S'Orlando'
p746
sg30
S'8'
p747
sS'restauranttype'
p748
S"cappriotti's"
p749
ssa(dp750
g2
(dp751
S'reservation'
p752
g5
sg6
g5
sg26
g5
sg7
g5
ssg8
g9
sg10
(dp753
S'date'
p754
S'tomorrow night'
p755
sS'city'
p756
S'Boston'
p757
sS'numberofpeople'
p758
S'3'
p759
sS'cuisine'
p760
S'asian'
p761
ssa(dp762
g2
(dp763
g24
g5
sS'restaurantname'
p764
g5
sg26
g5
sg7
g5
ssg8
g9
sg10
(dp765
S'city'
p766
S'BEVERLY HILLS'
p767
sS'state'
p768
S'California'
p769
sS'restauranttype'
p770
S'vegetarian'
p771
sg30
S'4'
p772
ssa(dp773
g2
(dp774
S'restaurantname'
p775
g5
sg26
g5
sg7
g5
ssg8
g9
sg10
(dp776
S'date'
p777
S'Saturday'
p778
sg30
S'7'
p779
ssa(dp780
g2
(dp781
g24
g5
sS'restaurantname'
p782
g5
sg26
g5
sg7
g5
ssg8
g9
sg10
(dp783
S'food'
p784
S'steak'
p785
sS'mealtype'
p786
S'dinner'
p787
sg30
S'2'
p788
ssa(dp789
g2
(dp790
g24
g5
sS'reservation'
p791
g5
sg26
g5
sg7
g5
ssg8
g9
sg10
(dp792
S'city'
p793
S'Seattle'
p794
sS'restaurantname'
p795
S'Mamnoon'
p796
sg30
S'6'
p797
ssa(dp798
g2
(dp799
g24
g5
sS'restaurantname'
p800
g5
sg26
g5
sg7
g5
ssg8
g9
sg10
(dp801
S'city'
p802
S'louisville'
p803
sS'state'
p804
S'ky'
p805
sg30
S'6'
p806
ssa(dp807
g2
(dp808
g24
g5
sg6
g5
sg26
g5
sg7
g5
ssg8
g9
sg10
(dp809
g30
S'8'
p810
sS'greeting'
p811
S'Good afternoon'
p812
ssa(dp813
g2
(dp814
g24
g5
sS'restaurantname'
p815
g5
sg26
g5
sg7
g5
ssg8
g9
sg10
(dp816
S'occasion'
p817
S'baby shower'
p818
sg30
S'4'
p819
ssa(dp820
g2
(dp821
S'restaurantname'
p822
g5
sg26
g5
sg7
g5
ssg8
g9
sg10
(dp823
S'date'
p824
S'this Sunday'
p825
sS'city'
p826
S'New Orleans'
p827
sg30
S'5'
p828
sS'other'
p829
S'listen to live music'
p830
sS'mealtype'
p831
S'lunch'
p832
ssa(dp833
g2
(dp834
g24
g5
sS'starttime'
p835
g5
sg7
g5
ssg8
g9
sg10
(dp836
S'restaurantname'
p837
S"Applebee's"
p838
sS'other'
p839
S"How late is Applebee's open until"
p840
sg30
S'8'
p841
ssa(dp842
g2
(dp843
S'restaurantname'
p844
g5
sg26
g5
sg7
g5
ssg8
g9
sg10
(dp845
S'city'
p846
S'wilmington'
p847
sS'numberofpeople'
p848
S'6'
p849
sS'cuisine'
p850
S'japanese'
p851
sS'state'
p852
S'nc'
p853
sS'other'
p854
S'serve organic food'
p855
sS'date'
p856
S'saturday night'
p857
ssa(dp858
g2
(dp859
S'reservation'
p860
g5
sg6
g5
sg7
g5
ssg8
g9
sg10
(dp861
S'rating'
p862
S'highest'
p863
sg30
S'1'
p864
sS'zip'
p865
S'91505'
p866
sS'city'
p867
S'Seattle'
p868
sS'personfullname'
p869
S'Roger'
p870
sS'starttime'
p871
S'7pm'
p872
sS'date'
p873
S'tonight'
p874
sS'restauranttype'
p875
S'bbq restaurant'
p876
ssa(dp877
g2
(dp878
S'reservation'
p879
g5
sg6
g5
sg26
g5
sg7
g5
ssg8
g9
sg10
(dp880
S'date'
p881
S'tonight'
p882
sS'city'
p883
S'Seattle'
p884
sS'numberofpeople'
p885
S'10'
p886
ssa(dp887
g2
(dp888
g24
g5
sS'restaurantname'
p889
g5
sg26
g5
sg7
g5
ssg8
g9
sg10
(dp890
S'city'
p891
S'Nashua'
p892
sS'state'
p893
S'NH'
p894
sS'restauranttype'
p895
S'steak house'
p896
sg30
S'5'
p897
ssa(dp898
g2
(dp899
g24
g5
sS'restaurantname'
p900
g5
sg26
g5
sg7
g5
ssg8
g9
sg10
(dp901
S'cuisine'
p902
S'Latin'
p903
sS'atmosphere'
p904
S'romantic'
p905
sg30
S'2'
p906
sS'city'
p907
S'Las Angeles'
p908
ssa(dp909
g2
(dp910
g24
g5
sS'reservation'
p911
g5
sg26
g5
sg7
g5
ssg8
g9
sg10
(dp912
S'city'
p913
S'Seattle'
p914
sS'restaurantname'
p915
S'the PF Changs'
p916
sg30
S'10'
p917
ssa(dp918
g2
(dp919
g24
g5
sS'reservation'
p920
g5
sg6
g5
sg26
g5
sg7
g5
ssg8
g9
sg10
(dp921
S'city'
p922
S'san antonio'
p923
sS'state'
p924
S'tx'
p925
sS'numberofpeople'
p926
S'1'
p927
ssa(dp928
g2
(dp929
S'restaurantname'
p930
g5
sg7
g5
ssg8
g9
sg10
(dp931
S'date'
p932
S'Monday'
p933
sS'city'
p934
S'Seattle'
p935
sS'numberofpeople'
p936
S'10'
p937
sS'starttime'
p938
S'6pm'
p939
ssa(dp940
g2
(dp941
g24
g5
sS'restaurantname'
p942
g5
sg26
g5
sg7
g5
ssg8
g9
sg10
(dp943
S'city'
p944
S'seattle'
p945
sS'numberofpeople'
p946
S'3'
p947
sS'restauranttype'
p948
S'vegan'
p949
ssa(dp950
g2
(dp951
g24
g5
sS'restaurantname'
p952
g5
sg26
g5
sg7
g5
ssg8
g9
sg10
(dp953
S'cuisine'
p954
S'Mexican'
p955
sS'state'
p956
S'alabama'
p957
sg30
S'1'
p958
sS'city'
p959
S'Foley'
p960
ssa(dp961
g2
(dp962
g24
g5
sg6
g5
sg26
g5
sS'address'
p963
g5
ssg8
g9
sg10
(dp964
g30
S'6'
p965
ssa(dp966
g2
(dp967
g24
g5
sS'restaurantname'
p968
g5
sg26
g5
sg7
g5
ssg8
g9
sg10
(dp969
S'city'
p970
S'NYC'
p971
sg30
S'1'
p972
sS'restauranttype'
p973
S'has a view of the city'
p974
ssa(dp975
g2
(dp976
g24
g5
sS'reservation'
p977
g5
sg26
g5
sg7
g5
ssg8
g9
sg10
(dp978
S'city'
p979
S'Arlington'
p980
sS'restaurantname'
p981
S'Hooters'
p982
sg30
S'3'
p983
sS'state'
p984
S'Texas'
p985
sS'cuisine'
p986
S'Thai'
p987
ssa(dp988
g2
(dp989
g24
g5
sS'restaurantname'
p990
g5
sg26
g5
sg7
g5
ssg8
g9
sg10
(dp991
S'cuisine'
p992
S'Greek'
p993
sg30
S'10'
p994
sS'city'
p995
S'San Diego'
p996
ssa(dp997
g2
(dp998
S'reservation'
p999
g5
sg6
g5
sg7
g5
ssg8
g9
sg10
(dp1000
S'date'
p1001
S'03/15/16'
p1002
sS'city'
p1003
S'seattle'
p1004
sS'numberofpeople'
p1005
S'4'
p1006
sS'starttime'
p1007
S'2:30pm'
p1008
sS'rating'
p1009
S'five star'
p1010
ssa(dp1011
g2
(dp1012
S'reservation'
p1013
g5
sS'restaurantname'
p1014
g5
sg7
g5
ssg8
g9
sg10
(dp1015
S'date'
p1016
S'tomorrow'
p1017
sS'city'
p1018
S'chicago'
p1019
sS'numberofpeople'
p1020
S'5'
p1021
sS'starttime'
p1022
S'5pm'
p1023
sS'cuisine'
p1024
S'sushi'
p1025
ssa(dp1026
g2
(dp1027
g24
g5
sS'restaurantname'
p1028
g5
sg26
g5
sg7
g5
ssg8
g9
sg10
(dp1029
S'food'
p1030
S'seafood'
p1031
sS'city'
p1032
S'San Diego'
p1033
sS'state'
p1034
S'CA'
p1035
sg30
S'6'
p1036
sS'distanceconstraints'
p1037
S'near Seport Village'
p1038
ssa(dp1039
g2
(dp1040
S'reservation'
p1041
g5
sg7
g5
ssg8
g9
sg10
(dp1042
S'date'
p1043
S'March 16th'
p1044
sS'city'
p1045
S'Seattle'
p1046
sS'restaurantname'
p1047
S'Wild Ginger Seattle'
p1048
sS'numberofpeople'
p1049
S'7'
p1050
sS'starttime'
p1051
S'6:30pm'
p1052
ssa(dp1053
g2
(dp1054
S'restaurantname'
p1055
g5
sg7
g5
ssg8
g9
sg10
(dp1056
S'city'
p1057
S'San Antonio'
p1058
sg30
S'1'
p1059
sS'food'
p1060
S'pizza'
p1061
sS'starttime'
p1062
S'8pm'
p1063
sS'date'
p1064
S'tomorrow'
p1065
sS'restauranttype'
p1066
S'vegan'
p1067
ssa(dp1068
g2
(dp1069
S'reservation'
p1070
g5
sS'restaurantname'
p1071
g5
sg7
g5
ssg8
g9
sg10
(dp1072
S'city'
p1073
S'Pensacola'
p1074
sS'numberofpeople'
p1075
S'10'
p1076
sS'state'
p1077
S'FL'
p1078
sS'starttime'
p1079
S'8pm'
p1080
sS'date'
p1081
S'Friday'
p1082
sS'restauranttype'
p1083
S'good pizza place'
p1084
ssa(dp1085
g2
(dp1086
S'reservation'
p1087
g5
sg6
g5
sg7
g5
ssg8
g9
sg10
(dp1088
S'city'
p1089
S'Oxnard'
p1090
sS'atmosphere'
p1091
S'Upscale'
p1092
sS'numberofpeople'
p1093
S'5'
p1094
sS'cuisine'
p1095
S'French'
p1096
sS'state'
p1097
S'ca'
p1098
sS'starttime'
p1099
S'7pm'
p1100
sS'date'
p1101
S'tomorrow night'
p1102
sS'mealtype'
p1103
S'dinner'
p1104
ssa(dp1105
g2
(dp1106
g24
g5
sS'restaurantname'
p1107
g5
sg26
g5
sg7
g5
ssg8
g9
sg10
(dp1108
S'mealtype'
p1109
S'dinner'
p1110
sg30
S'1'
p1111
sS'city'
p1112
S'Philly'
p1113
sS'other'
p1114
S'something nice but too expensive'
p1115
sS'cuisine'
p1116
S'american'
p1117
ssa(dp1118
g2
(dp1119
S'food'
p1120
g5
sg24
g5
sg26
g5
sg7
g5
ssg8
g9
sg10
(dp1121
S'city'
p1122
S'Birmingham'
p1123
sS'restaurantname'
p1124
S'Flemmings'
p1125
sg30
S'6'
p1126
sS'state'
p1127
S'AL'
p1128
ssa(dp1129
g2
(dp1130
g24
g5
sS'restaurantname'
p1131
g5
sg26
g5
sg7
g5
ssg8
g9
sg10
(dp1132
S'food'
p1133
S'BBQ'
p1134
sS'city'
p1135
S'Boston'
p1136
sg30
S'9'
p1137
ssa(dp1138
g2
(dp1139
S'reservation'
p1140
g5
sg6
g5
sg7
g5
ssg8
g9
sg10
(dp1141
S'city'
p1142
S'Miami'
p1143
sS'numberofpeople'
p1144
S'7'
p1145
sS'cuisine'
p1146
S'Cuban'
p1147
sS'state'
p1148
S'FL'
p1149
sS'starttime'
p1150
S'6pm'
p1151
sS'date'
p1152
S'3/19'
p1153
ssa(dp1154
g2
(dp1155
S'reservation'
p1156
g5
sg7
g5
ssg8
g9
sg10
(dp1157
S'city'
p1158
S'Atlanta'
p1159
sS'restaurantname'
p1160
S'Talba'
p1161
sS'numberofpeople'
p1162
S'9'
p1163
sS'state'
p1164
S'GA'
p1165
sS'starttime'
p1166
S'6:00'
p1167
sS'date'
p1168
S'tomorrow'
p1169
ssa(dp1170
g2
(dp1171
S'reservation'
p1172
g5
sg6
g5
sg7
g5
ssg8
g9
sg10
(dp1173
S'food'
p1174
S'seafood'
p1175
sS'city'
p1176
S'Seattle'
p1177
sS'numberofpeople'
p1178
S'2'
p1179
sS'date'
p1180
S'3/19'
p1181
sS'starttime'
p1182
S'1:30pm'
p1183
ssa(dp1184
g2
(dp1185
g24
g5
sS'reservation'
p1186
g5
sg6
g5
sg26
g5
sg7
g5
ssg8
g9
sg10
(dp1187
S'city'
p1188
S'Seattle'
p1189
sg30
S'2'
p1190
sS'restauranttype'
p1191
S'Gastro pub'
p1192
ssa(dp1193
g2
(dp1194
g24
g5
sS'reservation'
p1195
g5
sg6
g5
sg26
g5
sg7
g5
ssg8
g9
sg10
(dp1196
S'city'
p1197
S'San Antonio'
p1198
sS'state'
p1199
S'Texas'
p1200
sS'restauranttype'
p1201
S'Spaghetti Warehouse'
p1202
sg30
S'4'
p1203
ssa(dp1204
g2
(dp1205
S'reservation'
p1206
g5
sg7
g5
ssg8
g9
sg10
(dp1207
S'city'
p1208
S'Seattle'
p1209
sS'restaurantname'
p1210
S'Marjorie Restaurant'
p1211
sS'numberofpeople'
p1212
S'2'
p1213
sS'personfullname'
p1214
S'Elvis Dumervil'
p1215
sS'starttime'
p1216
S'7:00PM'
p1217
sS'date'
p1218
S'tomorrow'
p1219
ssa(dp1220
g2
(dp1221
g24
g5
sS'reservation'
p1222
g5
sg6
g5
sg26
g5
sg7
g5
ssg8
g9
sg10
(dp1223
g30
S'8'
p1224
sS'greeting'
p1225
S'hi'
p1226
ssa(dp1227
g2
(dp1228
g24
g5
sS'restaurantname'
p1229
g5
sg26
g5
sg7
g5
ssg8
g9
sg10
(dp1230
S'city'
p1231
S'seattle'
p1232
sS'numberofpeople'
p1233
S'6'
p1234
sS'cuisine'
p1235
S'seafood'
p1236
ssa(dp1237
g2
(dp1238
S'reservation'
p1239
g5
sg6
g5
sg7
g5
ssg8
g9
sg10
(dp1240
S'food'
p1241
S'seafood'
p1242
sS'city'
p1243
S'Seattle'
p1244
sS'numberofpeople'
p1245
S'8'
p1246
sS'date'
p1247
S'03/20'
p1248
sS'starttime'
p1249
S'3:30pm'
p1250
ssa(dp1251
g2
(dp1252
S'restaurantname'
p1253
g5
sg26
g5
sg7
g5
ssg8
g9
sg10
(dp1254
S'date'
p1255
S'tomorrow'
p1256
sS'city'
p1257
S'Detroit'
p1258
sg30
S'8'
p1259
sS'mealtype'
p1260
S'lunch'
p1261
ssa(dp1262
g2
(dp1263
S'reservation'
p1264
g5
sS'restaurantname'
p1265
g5
sg26
g5
sg7
g5
ssg8
g9
sg10
(dp1266
S'date'
p1267
S'tomorrow night'
p1268
sS'cuisine'
p1269
S'italian'
p1270
sS'numberofpeople'
p1271
S'10'
p1272
sS'city'
p1273
S'seattle'
p1274
ssa(dp1275
g2
(dp1276
S'reservation'
p1277
g5
sg6
g5
sg7
g5
ssg8
g9
sg10
(dp1278
S'date'
p1279
S'tomorrow'
p1280
sS'city'
p1281
S'Austin'
p1282
sS'numberofpeople'
p1283
S'5'
p1284
sS'restauranttype'
p1285
S'steakhouse'
p1286
sS'starttime'
p1287
S'6pm'
p1288
ssa(dp1289
g2
(dp1290
g24
g5
sS'restaurantname'
p1291
g5
sg26
g5
sg7
g5
ssg8
g9
sg10
(dp1292
S'cuisine'
p1293
S'Mexican'
p1294
sg30
S'8'
p1295
ssa(dp1296
g2
(dp1297
g24
g5
sS'restaurantname'
p1298
g5
sg26
g5
sg7
g5
ssg8
g9
sg10
(dp1299
S'food'
p1300
S'vegan'
p1301
sS'city'
p1302
S'Miami'
p1303
sg30
S'1'
p1304
ssa(dp1305
g2
(dp1306
S'reservation'
p1307
g5
sg6
g5
sg7
g5
ssg8
g9
sg10
(dp1308
S'date'
p1309
S'monday evening'
p1310
sS'city'
p1311
S'Pittsburgh'
p1312
sS'numberofpeople'
p1313
S'9'
p1314
sS'restauranttype'
p1315
S'bbq'
p1316
sS'starttime'
p1317
S'6'
p1318
ssa(dp1319
g2
(dp1320
g24
g5
sS'restaurantname'
p1321
g5
sg26
g5
sg7
g5
ssg8
g9
sg10
(dp1322
S'city'
p1323
S'Atlanta'
p1324
sg30
S'3'
p1325
ssa(dp1326
g2
(dp1327
g24
g5
sS'reservation'
p1328
g5
sg26
g5
sg7
g5
ssg8
g9
sg10
(dp1329
S'city'
p1330
S'Los Angeles'
p1331
sS'restaurantname'
p1332
S'Perch LA'
p1333
sS'numberofpeople'
p1334
S'10'
p1335
ssa(dp1336
g2
(dp1337
S'restaurantname'
p1338
g5
sg26
g5
sg7
g5
ssg8
g9
sg10
(dp1339
S'date'
p1340
S'tonight'
p1341
sg30
S'6'
p1342
sS'restauranttype'
p1343
S'vegan'
p1344
ssa(dp1345
g2
(dp1346
g24
g5
sS'restaurantname'
p1347
g5
sg26
g5
sg7
g5
ssg8
g9
sg10
(dp1348
g30
S'8'
p1349
sS'other'
p1350
S'find me a place that is similar'
p1351
ssa(dp1352
g2
(dp1353
S'reservation'
p1354
g5
sg7
g5
ssg8
g9
sg10
(dp1355
S'date'
p1356
S'March 21'
p1357
sS'city'
p1358
S'Seattle'
p1359
sS'restaurantname'
p1360
S'the Pink Door'
p1361
sS'numberofpeople'
p1362
S'6'
p1363
sS'starttime'
p1364
S'7 PM'
p1365
ssa(dp1366
g2
(dp1367
S'reservation'
p1368
g5
sg7
g5
ssg8
g9
sg10
(dp1369
S'city'
p1370
S'Seattle'
p1371
sS'restaurantname'
p1372
S'Sarajevo Restaurant'
p1373
sS'numberofpeople'
p1374
S'10'
p1375
sS'personfullname'
p1376
S'Nigella Lawson'
p1377
sS'starttime'
p1378
S'6:30PM'
p1379
sS'date'
p1380
S'tomorrow'
p1381
ssa(dp1382
g2
(dp1383
g24
g5
sS'reservation'
p1384
g5
sg6
g5
sg26
g5
sg7
g5
ssg8
g9
sg10
(dp1385
S'city'
p1386
S'Oklahoma City'
p1387
sS'numberofpeople'
p1388
S'4'
p1389
sS'restauranttype'
p1390
S'steakhouse'
p1391
ssa(dp1392
g2
(dp1393
S'reservation'
p1394
g5
sg7
g5
ssg8
g9
sg10
(dp1395
S'city'
p1396
S'Destin'
p1397
sS'restaurantname'
p1398
S'Hard Rock Cafe'
p1399
sS'numberofpeople'
p1400
S'5'
p1401
sS'state'
p1402
S'FL'
p1403
sS'starttime'
p1404
S'2pm'
p1405
sS'date'
p1406
S'March 21st'
p1407
ssa(dp1408
g2
(dp1409
S'restaurantname'
p1410
g5
sg7
g5
ssg8
g9
sg10
(dp1411
S'date'
p1412
S'Wednesday'
p1413
sS'city'
p1414
S'Orlando Florida'
p1415
sS'numberofpeople'
p1416
S'3'
p1417
sS'starttime'
p1418
S'around 6pm'
p1419
sS'occasion'
p1420
S'good family friendly'
p1421
ssa(dp1422
g2
(dp1423
g24
g5
sS'reservation'
p1424
g5
sg6
g5
sg26
g5
sg7
g5
ssg8
g9
sg10
(dp1425
S'city'
p1426
S'New York'
p1427
sg30
S'5'
p1428
sS'cuisine'
p1429
S'Greek'
p1430
ssa(dp1431
g2
(dp1432
S'reservation'
p1433
g5
sg6
g5
sg7
g5
ssg8
g9
sg10
(dp1434
S'date'
p1435
S'tomorrow'
p1436
sS'city'
p1437
S'chicago'
p1438
sS'numberofpeople'
p1439
S'6'
p1440
sS'restauranttype'
p1441
S'steakhouse'
p1442
sS'starttime'
p1443
S'6pm'
p1444
ssa(dp1445
g2
(dp1446
S'reservation'
p1447
g5
sg6
g5
sg7
g5
ssg8
g9
sg10
(dp1448
S'city'
p1449
S'Oakdale'
p1450
sS'numberofpeople'
p1451
S'10'
p1452
sS'state'
p1453
S'ca'
p1454
sS'starttime'
p1455
S'3pm'
p1456
sS'date'
p1457
S'today'
p1458
sS'restauranttype'
p1459
S'Deli'
p1460
ssa(dp1461
g2
(dp1462
g24
g5
sS'reservation'
p1463
g5
sg6
g5
sg7
g5
ssg8
g9
sg10
(dp1464
S'city'
p1465
S'new orleans'
p1466
sS'numberofpeople'
p1467
S'9'
p1468
sS'starttime'
p1469
S'3'
p1470
sS'cuisine'
p1471
S'italian'
p1472
ssa(dp1473
g2
(dp1474
g24
g5
sS'restaurantname'
p1475
g5
sg26
g5
sg7
g5
ssg8
g9
sg10
(dp1476
S'distanceconstraints'
p1477
S'near'
p1478
sS'cuisine'
p1479
S'Italian restaurant'
p1480
sg30
S'8'
p1481
sS'zip'
p1482
S'98112'
p1483
ssa(dp1484
g2
(dp1485
S'reservation'
p1486
g5
sg6
g5
sg7
g5
ssg8
g9
sg10
(dp1487
S'city'
p1488
S'Merced'
p1489
sS'numberofpeople'
p1490
S'5'
p1491
sS'cuisine'
p1492
S'Greek'
p1493
sS'state'
p1494
S'ca'
p1495
sS'starttime'
p1496
S'1pm'
p1497
sS'date'
p1498
S'monday'
p1499
ssa(dp1500
g2
(dp1501
S'reservation'
p1502
g5
sg7
g5
ssg8
g9
sg10
(dp1503
S'city'
p1504
S'seattle'
p1505
sS'restaurantname'
p1506
S'Serafina'
p1507
sS'numberofpeople'
p1508
S'3'
p1509
sS'personfullname'
p1510
S'Judson Mills'
p1511
sS'starttime'
p1512
S'9pm'
p1513
sS'date'
p1514
S'tomorrow'
p1515
ssa.