(lp0
(dp1
S'request_slots'
p2
(dp3
S'taxi'
p4
S'UNK'
p5
sS'pickup_location'
p6
g5
sS'cost'
p7
g5
sS'car_type'
p8
g5
ssS'diaact'
p9
S'request'
p10
sS'inform_slots'
p11
(dp12
S'dropoff_location'
p13
S'the nearest McDonalds'
p14
sS'date'
p15
S'today'
p16
sS'numberofpeople'
p17
S'9'
p18
sS'greeting'
p19
S'Hi'
p20
sS'pickup_time'
p21
S'3:00pm'
p22
ssa(dp23
g2
(dp24
S'taxi'
p25
g5
sS'date'
p26
g5
sg7
g5
sg8
g5
ssg9
g10
sg11
(dp27
S'dropoff_location'
p28
S'City Center'
p29
sS'pickup_location'
p30
S"the world's worst dateat Fogo de Chao"
p31
sg17
S'1'
p32
sS'pickup_location_city'
p33
S'Kansas City'
p34
sS'pickup_time'
p35
S'ASAP'
p36
ssa(dp37
g2
(dp38
S'taxi'
p39
g5
sg8
g5
sg7
g5
ssg9
g10
sg11
(dp40
S'pickup_time'
p41
S'around 4 pm'
p42
sS'dropoff_location_city'
p43
S'New York'
p44
sS'pickup_location_city'
p45
S'New York'
p46
sS'greeting'
p47
S'hi'
p48
sS'dropoff_location'
p49
S'99 E 52nd St'
p50
sS'state'
p51
S'NY'
p52
sg17
S'5'
p53
sS'date'
p54
S'today'
p55
sS'pickup_location'
p56
S'143 E Houston St'
p57
ssa(dp58
g2
(dp59
S'taxi'
p60
g5
sg8
g5
sS'pickup_time'
p61
g5
sS'dropoff_location'
p62
g5
sg7
g5
sg26
g5
ssg9
g10
sg11
(dp63
S'pickup_location'
p64
S'at the belks in the mall'
p65
sS'state'
p66
S'nc'
p67
sg17
S'8'
p68
sS'pickup_location_city'
p69
S'wilmington'
p70
ssa(dp71
g2
(dp72
S'taxi'
p73
g5
sg8
g5
sg7
g5
ssg9
g10
sg11
(dp74
S'dropoff_location'
p75
S'the nearest Marriott hotel'
p76
sS'pickup_location'
p77
S'Dallas Fort Worth Airport'
p78
sg17
S'4'
p79
sS'date'
p80
S'this Saturday'
p81
sS'pickup_time'
p82
S'at noon'
p83
ssa(dp84
g2
(dp85
S'taxi'
p86
g5
sg6
g5
sg7
g5
sg8
g5
ssg9
g10
sg11
(dp87
S'date'
p88
S'today'
p89
sS'dropoff_location'
p90
S'the nearest Red Lobster'
p91
sg17
S'5'
p92
sS'greeting'
p93
S'Hi'
p94
sS'pickup_time'
p95
S'at 9:00pm'
p96
ssa(dp97
g2
(dp98
S'taxi'
p99
g5
sg8
g5
sg61
g5
sg7
g5
sg26
g5
sg6
g5
ssg9
g10
sg11
(dp100
S'dropoff_location'
p101
S"denny's on south colege street"
p102
sS'state'
p103
S'nc'
p104
sS'other'
p105
S'best car'
p106
sg17
S'2'
p107
sS'dropoff_location_city'
p108
S'wilmington'
p109
ssa(dp110
g2
(dp111
S'taxi'
p112
g5
sg8
g5
sg7
g5
ssg9
g10
sg11
(dp113
g17
S'2'
p114
sS'pickup_time'
p115
S'1pm'
p116
sS'pickup_location_city'
p117
S'Las Vegas'
p118
sS'greeting'
p119
S'hi'
p120
sS'dropoff_location'
p121
S'Wet N Wild'
p122
sS'date'
p123
S'tomorrow'
p124
sS'pickup_location'
p125
S'MGM Casino'
p126
ssa(dp127
g2
(dp128
S'taxi'
p129
g5
sg8
g5
sg61
g5
sg62
g5
sg7
g5
sg26
g5
ssg9
g10
sg11
(dp130
S'pickup_location'
p131
S'Denver International Airport'
p132
sg17
S'6'
p133
ssa(dp134
g2
(dp135
S'taxi'
p136
g5
sg26
g5
sg61
g5
sg7
g5
sg8
g5
ssg9
g10
sg11
(dp137
S'dropoff_location'
p138
S'Discovery Park'
p139
sS'pickup_location'
p140
S'Carkeek Park'
p141
sg17
S'2'
p142
ssa(dp143
g2
(dp144
S'taxi'
p145
g5
sg6
g5
sg7
g5
sg8
g5
ssg9
g10
sg11
(dp146
S'dropoff_location'
p147
S'airport'
p148
sS'date'
p149
S'Friday'
p150
sg17
S'6'
p151
sS'pickup_time'
p152
S'morning'
p153
ssa(dp154
g2
(dp155
S'taxi'
p156
g5
sg62
g5
sg7
g5
sg8
g5
ssg9
g10
sg11
(dp157
S'date'
p158
S'Tomorrow'
p159
sS'pickup_location'
p160
S'Times Square'
p161
sg17
S'3'
p162
sS'pickup_location_city'
p163
S'New York'
p164
sS'pickup_time'
p165
S'5pm'
p166
ssa(dp167
g2
(dp168
S'taxi'
p169
g5
sg26
g5
sg61
g5
sg7
g5
sg8
g5
ssg9
g10
sg11
(dp170
S'dropoff_location'
p171
S'25 Timberlane Dr'
p172
sS'pickup_location'
p173
S'PHL airport'
p174
sS'state'
p175
S'NJ'
p176
sS'dropoff_location_city'
p177
S'Pennington'
p178
sg17
S'1'
p179
ssa(dp180
g2
(dp181
S'taxi'
p182
g5
sg8
g5
sg61
g5
sg62
g5
sg7
g5
sg26
g5
sg6
g5
ssg9
g10
sg11
(dp183
g17
S'7'
p184
sS'other'
p185
S'handicap accessible taxi'
p186
ssa(dp187
g2
(dp188
S'taxi'
p189
g5
sg6
g5
sg7
g5
sg8
g5
ssg9
g10
sg11
(dp190
S'dropoff_location'
p191
S'the nearest Red Lobster'
p192
sS'date'
p193
S'today'
p194
sg17
S'2'
p195
sS'greeting'
p196
S'Hi'
p197
sS'pickup_time'
p198
S'6:00pm'
p199
ssa(dp200
g2
(dp201
S'taxi'
p202
g5
sg26
g5
sS'cost'
p203
g5
sg61
g5
sg8
g5
ssg9
g10
sg11
(dp204
S'dropoff_location'
p205
S'CityHall'
p206
sS'pickup_location'
p207
S'CityHall'
p208
sS'state'
p209
S'SF'
p210
sg17
S'5'
p211
ssa(dp212
g2
(dp213
S'taxi'
p214
g5
sg6
g5
sg7
g5
sg8
g5
ssg9
g10
sg11
(dp215
S'dropoff_location'
p216
S'nearest Best Buy'
p217
sS'date'
p218
S'today'
p219
sg17
S'6'
p220
sS'greeting'
p221
S'Hi'
p222
sS'pickup_time'
p223
S'7pm'
p224
ssa(dp225
g2
(dp226
S'taxi'
p227
g5
sg6
g5
sg7
g5
sg8
g5
ssg9
g10
sg11
(dp228
S'dropoff_location'
p229
S'nearest Outback Steakhouse'
p230
sS'date'
p231
S'today'
p232
sg17
S'3'
p233
sS'greeting'
p234
S'hi'
p235
sS'pickup_time'
p236
S'5:00pm'
p237
ssa(dp238
g2
(dp239
S'taxi'
p240
g5
sg62
g5
sg7
g5
sg26
g5
sg8
g5
ssg9
g10
sg11
(dp241
S'pickup_location'
p242
S'North carolina State Highway patrol building off market street'
p243
sS'state'
p244
S'nc'
p245
sS'pickup_time'
p246
S'asap'
p247
sS'pickup_location_city'
p248
S'wilmington'
p249
sg17
S'4'
p250
ssa(dp251
g2
(dp252
S'taxi'
p253
g5
sg8
g5
sg61
g5
sg62
g5
sS'cost'
p254
g5
sg26
g5
sg6
g5
ssg9
g10
sg11
(dp255
S'state'
p256
S'CA'
p257
sg17
S'6'
p258
sS'pickup_location_city'
p259
S'Ontario'
p260
ssa(dp261
g2
(dp262
S'taxi'
p263
g5
sg6
g5
sg7
g5
sg8
g5
ssg9
g10
sg11
(dp264
S'dropoff_location'
p265
S'nearest Olive Garden'
p266
sS'date'
p267
S'today'
p268
sg17
S'4'
p269
sS'greeting'
p270
S'hi'
p271
sS'pickup_time'
p272
S'6:00pm'
p273
ssa(dp274
g2
(dp275
S'taxi'
p276
g5
sg8
g5
sg7
g5
ssg9
g10
sg11
(dp277
g17
S'9'
p278
sS'pickup_time'
p279
S'11:30 AM'
p280
sS'dropoff_location'
p281
S'2623 Northeast University Village Street #7'
p282
sS'state'
p283
S'WA'
p284
sS'dropoff_location_city'
p285
S'Seattle'
p286
sS'date'
p287
S'tomorrow'
p288
sS'pickup_location'
p289
S'9105 24th Ave NW'
p290
ssa(dp291
g2
(dp292
S'taxi'
p293
g5
sg26
g5
sg61
g5
sg7
g5
sg8
g5
ssg9
g10
sg11
(dp294
S'dropoff_location'
p295
S'sleep train arena'
p296
sS'pickup_location'
p297
S'Sacramento International Airport'
p298
sg17
S'9'
p299
ssa(dp300
g2
(dp301
S'taxi'
p302
g5
sg8
g5
sg61
g5
sg62
g5
sg7
g5
sg6
g5
ssg9
g10
sg11
(dp303
S'date'
p304
S'the next 4 weeks Mon-Fri'
p305
sg17
S'2'
p306
sS'other'
p307
S'pick up and drop off twice a day'
p308
ssa(dp309
g2
(dp310
S'taxi'
p311
g5
sg8
g5
sg61
g5
sg62
g5
sg7
g5
sg26
g5
ssg9
g10
sg11
(dp312
S'pickup_location'
p313
S'La-Z-Boy Furniture Galleries'
p314
sS'state'
p315
S'NC'
p316
sg17
S'5'
p317
sS'pickup_location_city'
p318
S'Wilmington'
p319
ssa(dp320
g2
(dp321
S'taxi'
p322
g5
sg8
g5
sg61
g5
sg62
g5
sg7
g5
sg26
g5
sg6
g5
ssg9
g10
sg11
(dp323
g17
S'1'
p324
sS'other'
p325
S'cost of ride'
p326
ssa(dp327
g2
(dp328
S'taxi'
p329
g5
sg26
g5
sg61
g5
sg7
g5
sg8
g5
ssg9
g10
sg11
(dp330
g17
S'2'
p331
sS'dropoff_location_city'
p332
S'Tampa'
p333
sS'greeting'
p334
S'Hello'
p335
sS'dropoff_location'
p336
S'3303 N. Lakeview Dr'
p337
sS'state'
p338
S'Florida'
p339
sS'pickup_location'
p340
S'Busch Gardens Tampa Bay'
p341
ssa(dp342
g2
(dp343
S'taxi'
p344
g5
sg8
g5
sg7
g5
ssg9
g10
sg11
(dp345
g17
S'9'
p346
sS'pickup_time'
p347
S'6pm'
p348
sS'pickup_location_city'
p349
S'NYC'
p350
sS'dropoff_location'
p351
S'Madison Square Garden'
p352
sS'date'
p353
S'tomorrow'
p354
sS'pickup_location'
p355
S'Central Park'
p356
ssa(dp357
g2
(dp358
S'taxi'
p359
g5
sg26
g5
sg61
g5
sg7
g5
sg8
g5
ssg9
g10
sg11
(dp360
S'dropoff_location'
p361
S'Naval Academy'
p362
sS'pickup_location'
p363
S'BWI airport'
p364
sg17
S'6'
p365
ssa(dp366
g2
(dp367
S'taxi'
p368
g5
sg6
g5
sg61
g5
sg7
g5
sg8
g5
ssg9
g10
sg11
(dp369
S'date'
p370
S'Sunday'
p371
sS'dropoff_location'
p372
S'San Diego Air & Space Museum'
p373
sg17
S'5'
p374
sS'greeting'
p375
S'Hello'
p376
ssa(dp377
g2
(dp378
S'taxi'
p379
g5
sg6
g5
sg7
g5
sg8
g5
ssg9
g10
sg11
(dp380
S'dropoff_location'
p381
S"he nearest Culver's"
p382
sS'date'
p383
S'today'
p384
sg17
S'5'
p385
sS'greeting'
p386
S'Hi'
p387
sS'pickup_time'
p388
S'6:00pm'
p389
ssa(dp390
g2
(dp391
S'taxi'
p392
g5
sg8
g5
sg61
g5
sg7
g5
sg26
g5
sg6
g5
ssg9
g10
sg11
(dp393
S'dropoff_location'
p394
S'mariners stadium'
p395
sg17
S'7'
p396
sS'dropoff_location_city'
p397
S'seattle'
p398
ssa(dp399
g2
(dp400
S'taxi'
p401
g5
sg62
g5
sg7
g5
ssg9
g10
sg11
(dp402
S'car_type'
p403
S'cab'
p404
sg17
S'6'
p405
sS'pickup_time'
p406
S'6'
p407
sS'pickup_location_city'
p408
S'wilmington'
p409
sS'state'
p410
S'nc'
p411
sS'date'
p412
S'tomorrow'
p413
sS'pickup_location'
p414
S'days inn on market street'
p415
ssa(dp416
g2
(dp417
S'taxi'
p418
g5
sg8
g5
sg61
g5
sg62
g5
sg7
g5
sg26
g5
sg6
g5
ssg9
g10
sg11
(dp419
g17
S'8'
p420
sS'pickup_location_city'
p421
S'Las Vegas'
p422
sS'greeting'
p423
S'Hi'
p424
ssa(dp425
g2
(dp426
S'taxi'
p427
g5
sg7
g5
ssg9
g10
sg11
(dp428
S'car_type'
p429
S'uber'
p430
sg17
S'3'
p431
sS'pickup_time'
p432
S'9am'
p433
sS'dropoff_location'
p434
S'Tampa Bay'
p435
sS'state'
p436
S'FL'
p437
sS'dropoff_location_city'
p438
S'Tampa Bay'
p439
sS'date'
p440
S'tomorrow'
p441
sS'pickup_location'
p442
S'Tampa International Airport'
p443
ssa(dp444
g2
(dp445
S'taxi'
p446
g5
sg62
g5
sg7
g5
ssg9
g10
sg11
(dp447
S'car_type'
p448
S'uber'
p449
sg17
S'8'
p450
sS'pickup_time'
p451
S'2 am'
p452
sS'pickup_location_city'
p453
S'Las Vegas'
p454
sS'date'
p455
S'3/20'
p456
sS'pickup_location'
p457
S"Meadow's to the Bally's Hotel & Casino"
p458
ssa(dp459
g2
(dp460
S'taxi'
p461
g5
sg8
g5
sg61
g5
sg62
g5
sg7
g5
sg26
g5
ssg9
g10
sg11
(dp462
S'pickup_location'
p463
S'Charlotte Douglas Airport'
p464
sg17
S'7'
p465
ssa(dp466
g2
(dp467
S'taxi'
p468
g5
sg8
g5
sg61
g5
sg7
g5
sg26
g5
sg6
g5
ssg9
g10
sg11
(dp469
S'dropoff_location'
p470
S'the Philadelphia Zoo'
p471
sg17
S'7'
p472
ssa(dp473
g2
(dp474
S'taxi'
p475
g5
sg8
g5
sg61
g5
sg62
g5
sg7
g5
sg6
g5
ssg9
g10
sg11
(dp476
S'date'
p477
S'tomorrow'
p478
sg17
S'2'
p479
sS'pickup_location_city'
p480
S'Los Angeles'
p481
ssa(dp482
g2
(dp483
S'taxi'
p484
g5
sg6
g5
sg62
g5
sg7
g5
sg8
g5
ssg9
g10
sg11
(dp485
S'date'
p486
S'tonight'
p487
sg17
S'5'
p488
sS'pickup_location_city'
p489
S'New Orleans'
p490
sS'pickup_time'
p491
S'10'
p492
ssa(dp493
g2
(dp494
S'taxi'
p495
g5
sg8
g5
sg61
g5
sg62
g5
sg7
g5
sg26
g5
ssg9
g10
sg11
(dp496
S'pickup_location'
p497
S'LAX Airport'
p498
sg17
S'5'
p499
ssa(dp500
g2
(dp501
S'taxi'
p502
g5
sg8
g5
sg61
g5
sg7
g5
sg26
g5
sg6
g5
ssg9
g10
sg11
(dp503
S'dropoff_location'
p504
S'Burbank-Bob Hope Airport Metrolink Station'
p505
sg17
S'6'
p506
ssa(dp507
g2
(dp508
S'taxi'
p509
g5
sg26
g5
sg61
g5
sg7
g5
sg8
g5
ssg9
g10
sg11
(dp510
S'dropoff_location'
p511
S"The Fork 'N' Cork"
p512
sS'pickup_location'
p513
S'within the hour'
p514
sS'state'
p515
S'NC'
p516
sg17
S'2'
p517
ssa(dp518
g2
(dp519
S'taxi'
p520
g5
sg8
g5
sg61
g5
sg7
g5
sg26
g5
sg6
g5
ssg9
g10
sg11
(dp521
S'dropoff_location'
p522
S'The Dallas Arboretum and Botanical Garden'
p523
sg17
S'8'
p524
ssa(dp525
g2
(dp526
S'taxi'
p527
g5
sg8
g5
sg61
g5
sg62
g5
sg7
g5
sg26
g5
ssg9
g10
sg11
(dp528
S'pickup_location'
p529
S'Atlantic Distributors'
p530
sS'state'
p531
S'NC'
p532
sS'other'
p533
S'an expensive car'
p534
sS'pickup_location_city'
p535
S'Wilmington'
p536
sg17
S'9'
p537
ssa(dp538
g2
(dp539
S'taxi'
p540
g5
sg6
g5
sg62
g5
sg7
g5
sg8
g5
ssg9
g10
sg11
(dp541
g17
S'10'
p542
sS'pickup_time'
p543
S'10pm'
p544
sS'greeting'
p545
S'Hey'
p546
sS'state'
p547
S'TX'
p548
sS'dropoff_location_city'
p549
S'Dallas'
p550
sS'date'
p551
S'tomorrow night'
p552
ssa(dp553
g2
(dp554
S'taxi'
p555
g5
sg26
g5
sg61
g5
sg7
g5
sg8
g5
ssg9
g10
sg11
(dp556
S'dropoff_location'
p557
S'Camden yards'
p558
sS'pickup_location'
p559
S'BWI airport'
p560
sg17
S'1'
p561
ssa(dp562
g2
(dp563
S'taxi'
p564
g5
sg6
g5
sg61
g5
sg7
g5
sg8
g5
ssg9
g10
sg11
(dp565
S'date'
p566
S'Friday'
p567
sS'dropoff_location'
p568
S"the Boston Children's Museum"
p569
sg17
S'9'
p570
ssa(dp571
g2
(dp572
S'taxi'
p573
g5
sg8
g5
sg7
g5
ssg9
g10
sg11
(dp574
S'date'
p575
S'tomorrow'
p576
sS'dropoff_location'
p577
S'Roscos chicken on 1514 N Gower St'
p578
sg17
S'2'
p579
sS'pickup_time'
p580
S'7pm'
p581
sS'pickup_location'
p582
S'Staples Center'
p583
ssa(dp584
g2
(dp585
S'taxi'
p586
g5
sg8
g5
sg61
g5
sg7
g5
ssg9
g10
sg11
(dp587
S'dropoff_location'
p588
S'airport'
p589
sS'pickup_location'
p590
S'1234 Chartres street'
p591
sg17
S'5'
p592
sS'pickup_location_city'
p593
S'New Orleans'
p594
sS'date'
p595
S'tomorrow'
p596
ssa(dp597
g2
(dp598
S'taxi'
p599
g5
sg26
g5
sg61
g5
sg7
g5
sg8
g5
ssg9
g10
sg11
(dp600
S'dropoff_location'
p601
S'MSG'
p602
sS'pickup_location'
p603
S'JFK airport'
p604
sg17
S'7'
p605
ssa(dp606
g2
(dp607
S'taxi'
p608
g5
sg6
g5
sg7
g5
sg8
g5
ssg9
g10
sg11
(dp609
S'date'
p610
S'today'
p611
sS'dropoff_location'
p612
S'SEATAC'
p613
sg17
S'3'
p614
sS'pickup_time'
p615
S'Fairchild International Airport'
p616
ssa(dp617
g2
(dp618
S'taxi'
p619
g5
sg26
g5
sg61
g5
sg7
g5
ssg9
g10
sg11
(dp620
S'car_type'
p621
S'Lyft'
p622
sg17
S'2'
p623
sS'pickup_location_city'
p624
S'Wheaton'
p625
sS'dropoff_location'
p626
S'OHARE airport'
p627
sS'state'
p628
S'IL'
p629
sS'pickup_location'
p630
S'501 College Ave'
p631
ssa(dp632
g2
(dp633
S'taxi'
p634
g5
sg26
g5
sg7
g5
ssg9
g10
sg11
(dp635
S'car_type'
p636
S'uber'
p637
sg17
S'10'
p638
sS'pickup_time'
p639
S'11am'
p640
sS'dropoff_location'
p641
S'ramada inn on market street'
p642
sS'state'
p643
S'nc'
p644
sS'dropoff_location_city'
p645
S'wilmington'
p646
sS'pickup_location'
p647
S'wilmington court house'
p648
ssa(dp649
g2
(dp650
S'taxi'
p651
g5
sg62
g5
sg61
g5
sg7
g5
sg8
g5
ssg9
g10
sg11
(dp652
S'date'
p653
S'tonight'
p654
sS'pickup_location'
p655
S'Wynn Hotel'
p656
sg17
S'9'
p657
ssa(dp658
g2
(dp659
S'taxi'
p660
g5
sg8
g5
sg7
g5
ssg9
g10
sg11
(dp661
g17
S'2'
p662
sS'pickup_time'
p663
S'6'
p664
sS'greeting'
p665
S'Hi'
p666
sS'dropoff_location'
p667
S'Lowes'
p668
sS'state'
p669
S'indiana'
p670
sS'dropoff_location_city'
p671
S'Bloomington'
p672
sS'date'
p673
S'today'
p674
sS'pickup_location'
p675
S'IU bloomington college'
p676
ssa(dp677
g2
(dp678
S'taxi'
p679
g5
sg8
g5
sg7
g5
ssg9
g10
sg11
(dp680
S'dropoff_location_city'
p681
S'Chicago'
p682
sS'name'
p683
S'Ray'
p684
sS'pickup_time'
p685
S'7am'
p686
sS'pickup_location_city'
p687
S'Chicago'
p688
sS'dropoff_location'
p689
S'5555 N Sheridan Rd Ste 23'
p690
sS'state'
p691
S'IL'
p692
sg17
S'10'
p693
sS'date'
p694
S'tomorrow'
p695
sS'pickup_location'
p696
S'1424 E 53rd St'
p697
ssa(dp698
g2
(dp699
S'taxi'
p700
g5
sg26
g5
sg61
g5
sg7
g5
sg8
g5
ssg9
g10
sg11
(dp701
S'dropoff_location'
p702
S'Wyndham Orlando Resort International Drive'
p703
sS'pickup_location'
p704
S'Orlando International Airport'
p705
sg17
S'5'
p706
ssa(dp707
g2
(dp708
S'taxi'
p709
g5
sg8
g5
sg61
g5
sg62
g5
sg7
g5
sg26
g5
ssg9
g10
sg11
(dp710
S'pickup_location'
p711
S'Navy Pier'
p712
sg17
S'6'
p713
sS'pickup_location_city'
p714
S'Chicago'
p715
sS'greeting'
p716
S'Hi'
p717
ssa(dp718
g2
(dp719
S'taxi'
p720
g5
sg7
g5
ssg9
g10
sg11
(dp721
S'car_type'
p722
S'uber'
p723
sg17
S'10'
p724
sS'pickup_time'
p725
S'6pm'
p726
sS'pickup_location_city'
p727
S'Las Vegas'
p728
sS'greeting'
p729
S'hi'
p730
sS'dropoff_location'
p731
S"Ruth's Chris Steakhouse"
p732
sS'date'
p733
S'today'
p734
sS'pickup_location'
p735
S'Excalibur Casino'
p736
ssa(dp737
g2
(dp738
S'taxi'
p739
g5
sg26
g5
sg61
g5
sg7
g5
sg8
g5
ssg9
g10
sg11
(dp740
S'dropoff_location'
p741
S'the willis tower'
p742
sS'pickup_location'
p743
S'bean'
p744
sg17
S'1'
p745
sS'dropoff_location_city'
p746
S'Chicago'
p747
ssa(dp748
g2
(dp749
g60
g5
sg8
g5
sg61
g5
sg62
g5
sg7
g5
sg26
g5
sg6
g5
ssg9
g10
sg11
(dp750
g17
S'1'
p751
sS'greeting'
p752
S'Hi'
p753
ssa(dp754
g2
(dp755
S'taxi'
p756
g5
sg8
g5
sg7
g5
ssg9
g10
sg11
(dp757
S'dropoff_location'
p758
S'MGM Grand Hotel'
p759
sS'date'
p760
S'Tomorrow'
p761
sg17
S'5'
p762
sS'pickup_time'
p763
S'6pm'
p764
sS'pickup_location'
p765
S'McCarren Airport'
p766
ssa(dp767
g2
(dp768
S'taxi'
p769
g5
sg8
g5
sg7
g5
ssg9
g10
sg11
(dp770
g17
S'10'
p771
sS'pickup_time'
p772
S'7pm'
p773
sS'pickup_location_city'
p774
S'New York'
p775
sS'dropoff_location'
p776
S'Casa Fox 173 Orchard St'
p777
sS'state'
p778
S'NY'
p779
sS'date'
p780
S'tonight'
p781
sS'pickup_location'
p782
S'The Ludlow 180 Ludlow St'
p783
ssa(dp784
g2
(dp785
S'taxi'
p786
g5
sg61
g5
sg62
g5
sg7
g5
sg26
g5
sg6
g5
ssg9
g10
sg11
(dp787
S'car_type'
p788
S'highest rated'
p789
sS'state'
p790
S'nc'
p791
sg17
S'2'
p792
sS'pickup_location_city'
p793
S'wilmington'
p794
ssa(dp795
g2
(dp796
S'taxi'
p797
g5
sg8
g5
sg7
g5
ssg9
g10
sg11
(dp798
g17
S'2'
p799
sS'pickup_time'
p800
S'2pm'
p801
sS'dropoff_location'
p802
S'port of Miam'
p803
sS'other'
p804
S'with luggage'
p805
sS'date'
p806
S'Sunday'
p807
sS'pickup_location'
p808
S'MIami airport'
p809
ssa(dp810
g2
(dp811
S'taxi'
p812
g5
sg8
g5
sg61
g5
sg62
g5
sg7
g5
sg26
g5
ssg9
g10
sg11
(dp813
S'pickup_location'
p814
S'McKinley Grand Hotel'
p815
sS'state'
p816
S'OH'
p817
sg17
S'3'
p818
sS'pickup_location_city'
p819
S'Canton'
p820
ssa(dp821
g2
(dp822
S'taxi'
p823
g5
sg8
g5
sg61
g5
sg7
g5
ssg9
g10
sg11
(dp824
S'date'
p825
S'this evening'
p826
sS'dropoff_location'
p827
S'Disney World Magic Kingdom'
p828
sg17
S'2'
p829
sS'greeting'
p830
S'Hello there'
p831
sS'pickup_location'
p832
S'Universal Studios Orlando'
p833
ssa(dp834
g2
(dp835
S'taxi'
p836
g5
sg26
g5
sg61
g5
sg7
g5
ssg9
g10
sg11
(dp837
S'car_type'
p838
S'UberBlack'
p839
sg17
S'7'
p840
sS'pickup_location_city'
p841
S'Houston'
p842
sS'dropoff_location'
p843
S'Pasha 2325 University Blvd'
p844
sS'state'
p845
S'TX'
p846
sS'other'
p847
S'an estimate'
p848
sS'pickup_location'
p849
S'Magnolia 1100 Texas Ave'
p850
ssa(dp851
g2
(dp852
S'taxi'
p853
g5
sg8
g5
sg61
g5
sg62
g5
sg7
g5
sg26
g5
sg6
g5
ssg9
g10
sg11
(dp854
g17
S'3'
p855
sS'pickup_location_city'
p856
S'hilly'
p857
ssa(dp858
g2
(dp859
S'taxi'
p860
g5
sg26
g5
sg61
g5
sg7
g5
sg8
g5
ssg9
g10
sg11
(dp861
S'dropoff_location'
p862
S'1333 Lida St'
p863
sS'pickup_location'
p864
S'1565 Blackstock Ave'
p865
sS'state'
p866
S'CA'
p867
sg17
S'3'
p868
sS'pickup_location_city'
p869
S'Pasadena'
p870
ssa(dp871
g2
(dp872
S'taxi'
p873
g5
sg26
g5
sg61
g5
sg7
g5
sg8
g5
ssg9
g10
sg11
(dp874
S'dropoff_location'
p875
S'Wake Forest University'
p876
sS'pickup_location'
p877
S'Blum Park'
p878
sS'state'
p879
S'North Carolina'
p880
sg17
S'8'
p881
ssa(dp882
g2
(dp883
S'taxi'
p884
g5
sg8
g5
sg7
g5
ssg9
g10
sg11
(dp885
S'dropoff_location'
p886
S'Marina Del Ray'
p887
sS'date'
p888
S'Tuesday'
p889
sg17
S'4'
p890
sS'pickup_time'
p891
S'about 4 PM'
p892
sS'pickup_location'
p893
S'LAX'
p894
ssa(dp895
g2
(dp896
S'taxi'
p897
g5
sg8
g5
sg7
g5
ssg9
g10
sg11
(dp898
g17
S'1'
p899
sS'distanceconstraints'
p900
S'near Omaha'
p901
sS'pickup_time'
p902
S'3pm'
p903
sS'dropoff_location'
p904
S'Omaha Zoo'
p905
sS'date'
p906
S'tomorrow'
p907
sS'pickup_location'
p908
S'outlet malls'
p909
ssa(dp910
g2
(dp911
S'taxi'
p912
g5
sg8
g5
sg7
g5
ssg9
g10
sg11
(dp913
S'dropoff_location'
p914
S'McCarren Airport'
p915
sS'pickup_location'
p916
S'Mandalay Bay'
p917
sg17
S'6'
p918
sS'date'
p919
S'Sunday'
p920
sS'pickup_time'
p921
S'230 pm'
p922
ssa(dp923
g2
(dp924
S'taxi'
p925
g5
sg6
g5
sg7
g5
sg8
g5
ssg9
g10
sg11
(dp926
S'dropoff_location'
p927
S'nearest Steak n Shake'
p928
sS'date'
p929
S'today'
p930
sg17
S'2'
p931
sS'greeting'
p932
S'hi'
p933
sS'pickup_time'
p934
S'5:00pm'
p935
ssa(dp936
g2
(dp937
S'taxi'
p938
g5
sg8
g5
sg7
g5
ssg9
g10
sg11
(dp939
S'dropoff_location'
p940
S'the SUperdome'
p941
sS'date'
p942
S'tomorrow'
p943
sg17
S'6'
p944
sS'pickup_time'
p945
S'6pm'
p946
sS'pickup_location'
p947
S'the New Orleans airport'
p948
ssa(dp949
g2
(dp950
S'taxi'
p951
g5
sg8
g5
sg61
g5
sg7
g5
sg26
g5
sg6
g5
ssg9
g10
sg11
(dp952
S'dropoff_location'
p953
S"Sam's Club"
p954
sS'state'
p955
S'NC'
p956
sS'dropoff_location_city'
p957
S'Wilmington'
p958
sg17
S'8'
p959
sS'other'
p960
S'a fuel efficient vehicle'
p961
ssa(dp962
g2
(dp963
S'taxi'
p964
g5
sg6
g5
sg61
g5
sg7
g5
sg8
g5
ssg9
g10
sg11
(dp965
S'dropoff_location'
p966
S'Bradley International Airport'
p967
sS'date'
p968
S'Friday,March 18th'
p969
sg17
S'5'
p970
sS'greeting'
p971
S'hi'
p972
ssa(dp973
g2
(dp974
S'taxi'
p975
g5
sg7
g5
ssg9
g10
sg11
(dp976
S'car_type'
p977
S'utaxi'
p978
sg17
S'7'
p979
sS'pickup_time'
p980
S'10am'
p981
sS'greeting'
p982
S'Hi there'
p983
sS'dropoff_location'
p984
S'Cruise Terminal 8 at Port Canaveral'
p985
sS'state'
p986
S'Florida'
p987
sS'date'
p988
S'April 3'
p989
sS'pickup_location'
p990
S'the Orlando Airport'
p991
ssa(dp992
g2
(dp993
S'taxi'
p994
g5
sg8
g5
sg7
g5
ssg9
g10
sg11
(dp995
g17
S'1'
p996
sS'pickup_time'
p997
S'9pm'
p998
sS'pickup_location_city'
p999
S'Seattle'
p1000
sS'dropoff_location'
p1001
S'200 8th Ave N'
p1002
sS'state'
p1003
S'WA'
p1004
sS'dropoff_location_city'
p1005
S'Seattle'
p1006
sS'date'
p1007
S'Wednesday'
p1008
sS'pickup_location'
p1009
S'100 bell st'
p1010
ssa(dp1011
g2
(dp1012
S'taxi'
p1013
g5
sg8
g5
sg7
g5
ssg9
g10
sg11
(dp1014
S'date'
p1015
S'tomorrow'
p1016
sS'dropoff_location'
p1017
S"Brooklyn Children's Museum"
p1018
sg17
S'9'
p1019
sS'pickup_time'
p1020
S'4pm'
p1021
sS'pickup_location'
p1022
S'LaGuardia Airport'
p1023
ssa(dp1024
g2
(dp1025
S'taxi'
p1026
g5
sg26
g5
sg61
g5
sg7
g5
sg8
g5
ssg9
g10
sg11
(dp1027
S'dropoff_location'
p1028
S'Babies R Us'
p1029
sS'pickup_location'
p1030
S'Sutter Hospital'
p1031
sg17
S'9'
p1032
sS'pickup_location_city'
p1033
S'Roseville'
p1034
ssa(dp1035
g2
(dp1036
S'taxi'
p1037
g5
sg61
g5
sg62
g5
sg7
g5
sg26
g5
sg6
g5
ssg9
g10
sg11
(dp1038
S'car_type'
p1039
S'uber'
p1040
sS'state'
p1041
S'ohio'
p1042
sg17
S'5'
p1043
sS'pickup_location_city'
p1044
S'warren'
p1045
ssa(dp1046
g2
(dp1047
S'taxi'
p1048
g5
sg8
g5
sg7
g5
ssg9
g10
sg11
(dp1049
g17
S'10'
p1050
sS'pickup_time'
p1051
S'7pm'
p1052
sS'pickup_location_city'
p1053
S'Seattle'
p1054
sS'dropoff_location'
p1055
S'323 Queen Anne Ave N'
p1056
sS'state'
p1057
S'WA'
p1058
sS'dropoff_location_city'
p1059
S'Seattle'
p1060
sS'date'
p1061
S'tonight'
p1062
sS'pickup_location'
p1063
S'17801 International Blvd'
p1064
ssa(dp1065
g2
(dp1066
S'taxi'
p1067
g5
sg8
g5
sg7
g5
ssg9
g10
sg11
(dp1068
g17
S'4'
p1069
sS'pickup_time'
p1070
S'3pm'
p1071
sS'pickup_location_city'
p1072
S'Luxor'
p1073
sS'dropoff_location'
p1074
S"OG's Gentleman's Club"
p1075
sS'dropoff_location_city'
p1076
S'Vegas'
p1077
sS'date'
p1078
S'April 2'
p1079
sS'pickup_location'
p1080
S'Luxor'
p1081
ssa(dp1082
g2
(dp1083
S'taxi'
p1084
g5
sg8
g5
sg7
g5
ssg9
g10
sg11
(dp1085
g17
S'7'
p1086
sS'pickup_time'
p1087
S'around 3pm'
p1088
sS'pickup_location_city'
p1089
S'New York'
p1090
sS'dropoff_location'
p1091
S'Muse Hotel 130 W 46th St'
p1092
sS'state'
p1093
S'NY'
p1094
sS'date'
p1095
S'today'
p1096
sS'pickup_location'
p1097
S'JFK'
p1098
ssa(dp1099
g2
(dp1100
S'taxi'
p1101
g5
sg6
g5
sg7
g5
sg8
g5
ssg9
g10
sg11
(dp1102
S'dropoff_location'
p1103
S'nearest Marriott hotel'
p1104
sS'date'
p1105
S'today'
p1106
sg17
S'2'
p1107
sS'pickup_time'
p1108
S'noon'
p1109
ssa(dp1110
g2
(dp1111
S'taxi'
p1112
g5
sg8
g5
sg62
g5
sg7
g5
sg26
g5
sg6
g5
ssg9
g10
sg11
(dp1113
g17
S'1'
p1114
sS'pickup_location_city'
p1115
S'Boston'
p1116
sS'pickup_time'
p1117
S'as soon as possible please'
p1118
ssa(dp1119
g2
(dp1120
S'taxi'
p1121
g5
sg7
g5
ssg9
g10
sg11
(dp1122
S'car_type'
p1123
S'uber'
p1124
sg17
S'1'
p1125
sS'pickup_time'
p1126
S'5pm'
p1127
sS'pickup_location_city'
p1128
S'Las Vegas'
p1129
sS'greeting'
p1130
S'hi'
p1131
sS'dropoff_location'
p1132
S"Sam's Town"
p1133
sS'date'
p1134
S'today'
p1135
sS'pickup_location'
p1136
S'Mandalay Bay Resort/Casino'
p1137
ssa(dp1138
g2
(dp1139
S'taxi'
p1140
g5
sg8
g5
sg7
g5
ssg9
g10
sg11
(dp1141
g17
S'5'
p1142
sS'name'
p1143
S'Roger'
p1144
sS'pickup_time'
p1145
S'4pm'
p1146
sS'pickup_location_city'
p1147
S'las vegas'
p1148
sS'dropoff_location'
p1149
S'The Museum of Tolerance'
p1150
sS'dropoff_location_city'
p1151
S'Los Angeles'
p1152
sS'date'
p1153
S'tomorrow'
p1154
sS'pickup_location'
p1155
S'Paris hotel'
p1156
ssa(dp1157
g2
(dp1158
S'taxi'
p1159
g5
sg6
g5
sg62
g5
sg7
g5
sg8
g5
ssg9
g10
sg11
(dp1160
S'date'
p1161
S'tomorrow'
p1162
sg17
S'3'
p1163
sS'pickup_location_city'
p1164
S'Seattle'
p1165
sS'greeting'
p1166
S'Hello'
p1167
sS'pickup_time'
p1168
S'5pm'
p1169
ssa(dp1170
g2
(dp1171
S'taxi'
p1172
g5
sg6
g5
sg7
g5
sg8
g5
ssg9
g10
sg11
(dp1173
S'dropoff_location'
p1174
S'nearest Target'
p1175
sS'date'
p1176
S'today'
p1177
sg17
S'9'
p1178
sS'greeting'
p1179
S'Hi'
p1180
sS'pickup_time'
p1181
S'8pm'
p1182
ssa(dp1183
g2
(dp1184
S'taxi'
p1185
g5
sg8
g5
sg61
g5
sg62
g5
sg7
g5
sg26
g5
ssg9
g10
sg11
(dp1186
S'pickup_location'
p1187
S'the airport in Fort Lauderdale.'
p1188
sg17
S'4'
p1189
sS'greeting'
p1190
S'hi'
p1191
ssa(dp1192
g2
(dp1193
S'taxi'
p1194
g5
sg6
g5
sg7
g5
sg8
g5
ssg9
g10
sg11
(dp1195
S'dropoff_location'
p1196
S'the nearest Dairy Queen'
p1197
sS'date'
p1198
S'today'
p1199
sg17
S'10'
p1200
sS'greeting'
p1201
S'Hi'
p1202
sS'pickup_time'
p1203
S'8:00 pm'
p1204
ssa(dp1205
g2
(dp1206
S'taxi'
p1207
g5
sg8
g5
sg7
g5
ssg9
g10
sg11
(dp1208
g17
S'4'
p1209
sS'pickup_time'
p1210
S'4:00 pm'
p1211
sS'dropoff_location'
p1212
S'hilton hotel on 6th avenue'
p1213
sS'dropoff_location_city'
p1214
S'Seattle'
p1215
sS'date'
p1216
S'tomorrow'
p1217
sS'pickup_location'
p1218
S'Seattle airport'
p1219
ssa(dp1220
g2
(dp1221
S'taxi'
p1222
g5
sg8
g5
sg7
g5
ssg9
g10
sg11
(dp1223
S'date'
p1224
S'tomorrow'
p1225
sS'dropoff_location'
p1226
S'the Museum Mile'
p1227
sg17
S'1'
p1228
sS'pickup_time'
p1229
S'at 4pm'
p1230
sS'pickup_location'
p1231
S'LaGuardia Airport'
p1232
ssa(dp1233
g2
(dp1234
S'taxi'
p1235
g5
sg8
g5
sg7
g5
ssg9
g10
sg11
(dp1236
g17
S'9'
p1237
sS'pickup_time'
p1238
S'4pm'
p1239
sS'pickup_location_city'
p1240
S'NYC'
p1241
sS'dropoff_location'
p1242
S'National Portrait Gallery'
p1243
sS'state'
p1244
S'D.C'
p1245
sS'dropoff_location_city'
p1246
S'Washington'
p1247
sS'date'
p1248
S'today'
p1249
sS'pickup_location'
p1250
S'JFK'
p1251
ssa(dp1252
g2
(dp1253
S'taxi'
p1254
g5
sg8
g5
sg7
g5
ssg9
g10
sg11
(dp1255
S'dropoff_location_city'
p1256
S'Houston'
p1257
sS'pickup_time'
p1258
S'6pm'
p1259
sS'pickup_location_city'
p1260
S'Houston'
p1261
sS'greeting'
p1262
S'hi'
p1263
sS'dropoff_location'
p1264
S'Alamo Drafthouse Cinema Mason Park 531 South Mason Road'
p1265
sS'state'
p1266
S'TX'
p1267
sg17
S'5'
p1268
sS'date'
p1269
S'today'
p1270
sS'pickup_location'
p1271
S'Doubletree Hotel'
p1272
ssa(dp1273
g2
(dp1274
S'taxi'
p1275
g5
sg6
g5
sg62
g5
sg61
g5
sg7
g5
ssg9
g10
sg11
(dp1276
S'date'
p1277
S'on April 4th'
p1278
sS'car_type'
p1279
S'SUV with Wifi'
p1280
sg17
S'5'
p1281
ssa(dp1282
g2
(dp1283
S'taxi'
p1284
g5
sg6
g5
sg7
g5
sg26
g5
sg8
g5
ssg9
g10
sg11
(dp1285
S'dropoff_location'
p1286
S'Church Suinday'
p1287
sg17
S'10'
p1288
sS'greeting'
p1289
S'Good Morning'
p1290
sS'pickup_time'
p1291
S'10 AM'
p1292
ssa(dp1293
g2
(dp1294
S'taxi'
p1295
g5
sg62
g5
sg7
g5
sg8
g5
ssg9
g10
sg11
(dp1296
g17
S'8'
p1297
sS'pickup_time'
p1298
S'10am'
p1299
sS'pickup_location_city'
p1300
S'wilmington'
p1301
sS'state'
p1302
S'nc'
p1303
sS'date'
p1304
S'tomorrow'
p1305
sS'pickup_location'
p1306
S'ilm airport'
p1307
ssa(dp1308
g2
(dp1309
S'taxi'
p1310
g5
sg8
g5
sg61
g5
sg62
g5
sg7
g5
sg26
g5
sg6
g5
ssg9
g10
sg11
(dp1311
g17
S'5'
p1312
sS'pickup_location_city'
p1313
S'Seattle'
p1314
sS'other'
p1315
S'really cheap'
p1316
ssa(dp1317
g2
(dp1318
S'taxi'
p1319
g5
sg7
g5
ssg9
g10
sg11
(dp1320
S'car_type'
p1321
S'uber'
p1322
sg17
S'5'
p1323
sS'name'
p1324
S'Roger'
p1325
sS'pickup_time'
p1326
S'4pm'
p1327
sS'pickup_location_city'
p1328
S'Miami'
p1329
sS'dropoff_location'
p1330
S'Trump Beach Resort'
p1331
sS'date'
p1332
S'tomorrow'
p1333
sS'pickup_location'
p1334
S'Miami International Airport'
p1335
ssa(dp1336
g2
(dp1337
S'taxi'
p1338
g5
sg26
g5
sg7
g5
sg8
g5
ssg9
g10
sg11
(dp1339
g17
S'10'
p1340
sS'pickup_time'
p1341
S'ASAP'
p1342
sS'pickup_location_city'
p1343
S'bolingbrook'
p1344
sS'dropoff_location'
p1345
S'lincoln park zoo'
p1346
sS'dropoff_location_city'
p1347
S'chicago'
p1348
sS'pickup_location'
p1349
S'ikea'
p1350
ssa(dp1351
g2
(dp1352
S'taxi'
p1353
g5
sg8
g5
sg62
g5
sg7
g5
sg26
g5
sg6
g5
ssg9
g10
sg11
(dp1354
g17
S'9'
p1355
sS'greeting'
p1356
S'hi'
p1357
sS'pickup_time'
p1358
S'7:30'
p1359
ssa(dp1360
g2
(dp1361
S'taxi'
p1362
g5
sg26
g5
sg61
g5
sg7
g5
sg8
g5
ssg9
g10
sg11
(dp1363
S'dropoff_location'
p1364
S'Please Touch Museum'
p1365
sS'pickup_location'
p1366
S'out to the Liberty Bell'
p1367
sg17
S'5'
p1368
sS'pickup_location_city'
p1369
S'Philadelphia'
p1370
ssa(dp1371
g2
(dp1372
S'taxi'
p1373
g5
sg61
g5
sg62
g5
sg7
g5
sg26
g5
sg6
g5
ssg9
g10
sg11
(dp1374
S'car_type'
p1375
S'uber'
p1376
sg17
S'10'
p1377
sS'other'
p1378
S'the max distance an uber will drive'
p1379
ssa(dp1380
g2
(dp1381
S'taxi'
p1382
g5
sg8
g5
sg61
g5
sg62
g5
sg7
g5
sg26
g5
ssg9
g10
sg11
(dp1383
S'pickup_location'
p1384
S"Kroger's on 1799 Briarcliff Rd, NE"
p1385
sS'state'
p1386
S'GA'
p1387
sg17
S'5'
p1388
sS'pickup_location_city'
p1389
S'Atlanta'
p1390
ssa(dp1391
g2
(dp1392
S'taxi'
p1393
g5
sg8
g5
sg7
g5
ssg9
g10
sg11
(dp1394
g17
S'8'
p1395
sS'pickup_time'
p1396
S'at 3:00 p.m.'
p1397
sS'dropoff_location'
p1398
S'Westin Peachtree Plaza'
p1399
sS'dropoff_location_city'
p1400
S'Atlanta'
p1401
sS'date'
p1402
S'tomorrow'
p1403
sS'pickup_location'
p1404
S'Atlanta Hartsfield Airport'
p1405
ssa(dp1406
g2
(dp1407
S'taxi'
p1408
g5
sg6
g5
sg7
g5
sg8
g5
ssg9
g10
sg11
(dp1409
S'dropoff_location'
p1410
S'Hobby Airport'
p1411
sS'date'
p1412
S'today'
p1413
sg17
S'8'
p1414
sS'pickup_time'
p1415
S'9pm'
p1416
ssa(dp1417
g2
(dp1418
S'taxi'
p1419
g5
sg26
g5
sg7
g5
sg8
g5
ssg9
g10
sg11
(dp1420
S'dropoff_location'
p1421
S'mercy hospital'
p1422
sS'pickup_location'
p1423
S'Iowa state capitol building'
p1424
sg17
S'5'
p1425
sS'pickup_time'
p1426
S'asap'
p1427
sS'dropoff_location_city'
p1428
S'design moines'
p1429
ssa(dp1430
g2
(dp1431
S'taxi'
p1432
g5
sg26
g5
sg61
g5
sg7
g5
sg8
g5
ssg9
g10
sg11
(dp1433
g17
S'9'
p1434
sS'dropoff_location_city'
p1435
S'Pennsylvania'
p1436
sS'pickup_location_city'
p1437
S'Pennington'
p1438
sS'greeting'
p1439
S'Hi'
p1440
sS'dropoff_location'
p1441
S'Sesame Place theme park'
p1442
sS'state'
p1443
S'NJ'
p1444
sS'pickup_location'
p1445
S'Timberlane Middle School'
p1446
ssa(dp1447
g2
(dp1448
S'taxi'
p1449
g5
sg26
g5
sg61
g5
sg7
g5
sg8
g5
ssg9
g10
sg11
(dp1450
S'dropoff_location'
p1451
S'Pearland Liquor'
p1452
sS'pickup_location'
p1453
S'The Galleria on Westheimer'
p1454
sg17
S'8'
p1455
sS'pickup_location_city'
p1456
S'Houston'
p1457
ssa(dp1458
g2
(dp1459
S'taxi'
p1460
g5
sg8
g5
sg61
g5
sg7
g5
sg26
g5
sg6
g5
ssg9
g10
sg11
(dp1461
S'dropoff_location'
p1462
S'1300 Biscayne Blvd'
p1463
sS'state'
p1464
S'FL'
p1465
sS'dropoff_location_city'
p1466
S'Miami'
p1467
sg17
S'8'
p1468
sS'greeting'
p1469
S'Hi'
p1470
ssa(dp1471
g2
(dp1472
S'taxi'
p1473
g5
sg26
g5
sg7
g5
sg8
g5
ssg9
g10
sg11
(dp1474
S'dropoff_location'
p1475
S'Target field'
p1476
sS'pickup_location'
p1477
S'Minneapolis airport'
p1478
sg17
S'1'
p1479
sS'greeting'
p1480
S'Hello'
p1481
sS'pickup_time'
p1482
S'2pm'
p1483
ssa(dp1484
g2
(dp1485
S'taxi'
p1486
g5
sg6
g5
sg62
g5
sg7
g5
sg8
g5
ssg9
g10
sg11
(dp1487
S'date'
p1488
S'Thursday'
p1489
sg17
S'6'
p1490
sS'pickup_time'
p1491
S'at 9am'
p1492
ssa(dp1493
g2
(dp1494
S'taxi'
p1495
g5
sg8
g5
sg7
g5
ssg9
g10
sg11
(dp1496
g17
S'7'
p1497
sS'pickup_time'
p1498
S'4pm'
p1499
sS'pickup_location_city'
p1500
S'new york'
p1501
sS'dropoff_location'
p1502
S'9/11 Monument'
p1503
sS'date'
p1504
S'April 15th'
p1505
sS'pickup_location'
p1506
S'Plaza Hotel'
p1507
ssa(dp1508
g2
(dp1509
S'taxi'
p1510
g5
sg8
g5
sg7
g5
ssg9
g10
sg11
(dp1511
g17
S'8'
p1512
sS'pickup_time'
p1513
S'4pm'
p1514
sS'pickup_location_city'
p1515
S'NYC'
p1516
sS'dropoff_location'
p1517
S'Grammy Museum'
p1518
sS'dropoff_location_city'
p1519
S'Los Angeles'
p1520
sS'date'
p1521
S'tomorrow'
p1522
sS'pickup_location'
p1523
S'JFK'
p1524
ssa(dp1525
g2
(dp1526
S'taxi'
p1527
g5
sg8
g5
sg61
g5
sg7
g5
ssg9
g10
sg11
(dp1528
g17
S'4'
p1529
sS'dropoff_location_city'
p1530
S'Arlington'
p1531
sS'pickup_location_city'
p1532
S'Dallas'
p1533
sS'dropoff_location'
p1534
S'AT&T Stadium'
p1535
sS'date'
p1536
S'tomorrow night'
p1537
sS'pickup_location'
p1538
S'American Airlines Center in Dallas'
p1539
ssa(dp1540
g2
(dp1541
S'taxi'
p1542
g5
sg61
g5
sg62
g5
sg7
g5
sg26
g5
sg6
g5
ssg9
g10
sg11
(dp1543
S'car_type'
p1544
S'uber'
p1545
sS'state'
p1546
S'nh'
p1547
sg17
S'2'
p1548
sS'pickup_location_city'
p1549
S'Nashu'
p1550
ssa(dp1551
g2
(dp1552
S'taxi'
p1553
g5
sg8
g5
sg7
g5
ssg9
g10
sg11
(dp1554
S'dropoff_location'
p1555
S'Muhlenberg Library at 209 West 23rd Street'
p1556
sS'date'
p1557
S'tonight'
p1558
sg17
S'3'
p1559
sS'pickup_time'
p1560
S'10:45 pm'
p1561
sS'pickup_location'
p1562
S'Central Park'
p1563
ssa(dp1564
g2
(dp1565
g60
g5
sg8
g5
sg7
g5
ssg9
g10
sg11
(dp1566
g17
S'5'
p1567
sS'pickup_time'
p1568
S'9pm'
p1569
sS'pickup_location_city'
p1570
S'seattle'
p1571
sS'dropoff_location'
p1572
S'200 8th Ave N'
p1573
sS'state'
p1574
S'wa'
p1575
sS'dropoff_location_city'
p1576
S'seattle'
p1577
sS'date'
p1578
S'wendesday'
p1579
sS'pickup_location'
p1580
S'100 bell st'
p1581
ssa(dp1582
g2
(dp1583
S'taxi'
p1584
g5
sg26
g5
sg61
g5
sg7
g5
sg8
g5
ssg9
g10
sg11
(dp1585
S'dropoff_location'
p1586
S'Roseville Galleria mall'
p1587
sS'pickup_location'
p1588
S'Arden Mall'
p1589
sg17
S'3'
p1590
sS'pickup_location_city'
p1591
S'Sacramento'
p1592
sS'dropoff_location_city'
p1593
S'Roseville'
p1594
ssa(dp1595
g2
(dp1596
S'taxi'
p1597
g5
sg26
g5
sg61
g5
sg7
g5
sg8
g5
ssg9
g10
sg11
(dp1598
S'dropoff_location'
p1599
S'Pensacola Museum of Art'
p1600
sS'pickup_location'
p1601
S'Saenger Theatre'
p1602
sg17
S'7'
p1603
sS'pickup_location_city'
p1604
S'Pe nsacola'
p1605
ssa(dp1606
g2
(dp1607
S'taxi'
p1608
g5
sg26
g5
sg61
g5
sg7
g5
sg8
g5
ssg9
g10
sg11
(dp1609
S'dropoff_location'
p1610
S'Pike Place Market'
p1611
sS'pickup_location'
p1612
S'Westin Seattle'
p1613
sg17
S'1'
p1614
ssa(dp1615
g2
(dp1616
S'taxi'
p1617
g5
sg61
g5
sg62
g5
sg7
g5
sg26
g5
sg6
g5
ssg9
g10
sg11
(dp1618
S'car_type'
p1619
S'uber'
p1620
sg17
S'10'
p1621
sS'pickup_location_city'
p1622
S'Pittsburgh'
p1623
ssa(dp1624
g2
(dp1625
S'taxi'
p1626
g5
sg6
g5
sg7
g5
sg8
g5
ssg9
g10
sg11
(dp1627
g17
S'4'
p1628
sS'distanceconstraints'
p1629
S'nearest'
p1630
sS'pickup_time'
p1631
S'5:00pm'
p1632
sS'greeting'
p1633
S'Hi'
p1634
sS'dropoff_location'
p1635
S'Outback Steakhouse'
p1636
sS'date'
p1637
S'today'
p1638
ssa.